
hw02.elf:     file format elf32-littlearm


Disassembly of section .text:

00000000 <__isr_vector>:
       0:	10008000 	.word	0x10008000
       4:	00000849 	.word	0x00000849
       8:	00000879 	.word	0x00000879
       c:	0000087b 	.word	0x0000087b
      10:	0000087d 	.word	0x0000087d
      14:	0000087f 	.word	0x0000087f
      18:	00000881 	.word	0x00000881
	...
      2c:	00000883 	.word	0x00000883
      30:	00000885 	.word	0x00000885
      34:	00000000 	.word	0x00000000
      38:	00000887 	.word	0x00000887
      3c:	00000889 	.word	0x00000889
      40:	0000088b 	.word	0x0000088b
      44:	0000088b 	.word	0x0000088b
      48:	0000088b 	.word	0x0000088b
      4c:	0000088b 	.word	0x0000088b
      50:	0000088b 	.word	0x0000088b
      54:	0000088b 	.word	0x0000088b
      58:	0000088b 	.word	0x0000088b
      5c:	0000088b 	.word	0x0000088b
      60:	0000088b 	.word	0x0000088b
      64:	0000088b 	.word	0x0000088b
      68:	0000088b 	.word	0x0000088b
      6c:	0000088b 	.word	0x0000088b
      70:	0000088b 	.word	0x0000088b
      74:	0000088b 	.word	0x0000088b
      78:	0000088b 	.word	0x0000088b
      7c:	0000088b 	.word	0x0000088b
      80:	0000088b 	.word	0x0000088b
      84:	0000088b 	.word	0x0000088b
      88:	0000088b 	.word	0x0000088b
      8c:	0000088b 	.word	0x0000088b
      90:	0000088b 	.word	0x0000088b
      94:	0000088b 	.word	0x0000088b
      98:	0000088b 	.word	0x0000088b
      9c:	0000088b 	.word	0x0000088b
      a0:	0000088b 	.word	0x0000088b
      a4:	0000088b 	.word	0x0000088b
      a8:	0000088b 	.word	0x0000088b
      ac:	0000088b 	.word	0x0000088b
      b0:	0000088b 	.word	0x0000088b
      b4:	0000088b 	.word	0x0000088b
      b8:	0000088b 	.word	0x0000088b
      bc:	0000088b 	.word	0x0000088b
      c0:	0000088b 	.word	0x0000088b
      c4:	0000088b 	.word	0x0000088b
      c8:	0000088b 	.word	0x0000088b

000000cc <__do_global_dtors_aux>:
      cc:	b510      	push	{r4, lr}
      ce:	4c05      	ldr	r4, [pc, #20]	; (e4 <__do_global_dtors_aux+0x18>)
      d0:	7823      	ldrb	r3, [r4, #0]
      d2:	b933      	cbnz	r3, e2 <__do_global_dtors_aux+0x16>
      d4:	4b04      	ldr	r3, [pc, #16]	; (e8 <__do_global_dtors_aux+0x1c>)
      d6:	b113      	cbz	r3, de <__do_global_dtors_aux+0x12>
      d8:	4804      	ldr	r0, [pc, #16]	; (ec <__do_global_dtors_aux+0x20>)
      da:	f3af 8000 	nop.w
      de:	2301      	movs	r3, #1
      e0:	7023      	strb	r3, [r4, #0]
      e2:	bd10      	pop	{r4, pc}
      e4:	10000180 	.word	0x10000180
      e8:	00000000 	.word	0x00000000
      ec:	00007eac 	.word	0x00007eac

000000f0 <frame_dummy>:
      f0:	4b08      	ldr	r3, [pc, #32]	; (114 <frame_dummy+0x24>)
      f2:	b510      	push	{r4, lr}
      f4:	b11b      	cbz	r3, fe <frame_dummy+0xe>
      f6:	4808      	ldr	r0, [pc, #32]	; (118 <frame_dummy+0x28>)
      f8:	4908      	ldr	r1, [pc, #32]	; (11c <frame_dummy+0x2c>)
      fa:	f3af 8000 	nop.w
      fe:	4808      	ldr	r0, [pc, #32]	; (120 <frame_dummy+0x30>)
     100:	6803      	ldr	r3, [r0, #0]
     102:	b903      	cbnz	r3, 106 <frame_dummy+0x16>
     104:	bd10      	pop	{r4, pc}
     106:	4b07      	ldr	r3, [pc, #28]	; (124 <frame_dummy+0x34>)
     108:	2b00      	cmp	r3, #0
     10a:	d0fb      	beq.n	104 <frame_dummy+0x14>
     10c:	e8bd 4010 	ldmia.w	sp!, {r4, lr}
     110:	4718      	bx	r3
     112:	bf00      	nop
     114:	00000000 	.word	0x00000000
     118:	00007eac 	.word	0x00007eac
     11c:	10000184 	.word	0x10000184
     120:	10000180 	.word	0x10000180
     124:	00000000 	.word	0x00000000

00000128 <_mainCRTStartup>:
     128:	4b15      	ldr	r3, [pc, #84]	; (180 <_mainCRTStartup+0x58>)
     12a:	2b00      	cmp	r3, #0
     12c:	bf08      	it	eq
     12e:	4b13      	ldreq	r3, [pc, #76]	; (17c <_mainCRTStartup+0x54>)
     130:	469d      	mov	sp, r3
     132:	f5a3 3a80 	sub.w	sl, r3, #65536	; 0x10000
     136:	2100      	movs	r1, #0
     138:	468b      	mov	fp, r1
     13a:	460f      	mov	r7, r1
     13c:	4813      	ldr	r0, [pc, #76]	; (18c <_mainCRTStartup+0x64>)
     13e:	4a14      	ldr	r2, [pc, #80]	; (190 <_mainCRTStartup+0x68>)
     140:	1a12      	subs	r2, r2, r0
     142:	f002 f810 	bl	2166 <memset>
     146:	4b0f      	ldr	r3, [pc, #60]	; (184 <_mainCRTStartup+0x5c>)
     148:	2b00      	cmp	r3, #0
     14a:	d000      	beq.n	14e <_mainCRTStartup+0x26>
     14c:	4798      	blx	r3
     14e:	4b0e      	ldr	r3, [pc, #56]	; (188 <_mainCRTStartup+0x60>)
     150:	2b00      	cmp	r3, #0
     152:	d000      	beq.n	156 <_mainCRTStartup+0x2e>
     154:	4798      	blx	r3
     156:	2000      	movs	r0, #0
     158:	2100      	movs	r1, #0
     15a:	0004      	movs	r4, r0
     15c:	000d      	movs	r5, r1
     15e:	480d      	ldr	r0, [pc, #52]	; (194 <_mainCRTStartup+0x6c>)
     160:	2800      	cmp	r0, #0
     162:	d002      	beq.n	16a <_mainCRTStartup+0x42>
     164:	480c      	ldr	r0, [pc, #48]	; (198 <_mainCRTStartup+0x70>)
     166:	f3af 8000 	nop.w
     16a:	f001 ff61 	bl	2030 <__libc_init_array>
     16e:	0020      	movs	r0, r4
     170:	0029      	movs	r1, r5
     172:	f000 fb2f 	bl	7d4 <__wrap_main>
     176:	f001 fc79 	bl	1a6c <exit>
     17a:	bf00      	nop
     17c:	00080000 	.word	0x00080000
     180:	10008000 	.word	0x10008000
	...
     18c:	10000180 	.word	0x10000180
     190:	10000808 	.word	0x10000808
	...

0000019c <_ZN4mbed10SerialBaseD1Ev>:
     19c:	4770      	bx	lr
	...

000001a0 <_ZN4mbed6SerialD1Ev>:
     1a0:	b510      	push	{r4, lr}
     1a2:	4604      	mov	r4, r0
     1a4:	4b06      	ldr	r3, [pc, #24]	; (1c0 <_ZN4mbed6SerialD1Ev+0x20>)
     1a6:	3048      	adds	r0, #72	; 0x48
     1a8:	f103 0218 	add.w	r2, r3, #24
     1ac:	f840 3c48 	str.w	r3, [r0, #-72]
     1b0:	334c      	adds	r3, #76	; 0x4c
     1b2:	6002      	str	r2, [r0, #0]
     1b4:	6043      	str	r3, [r0, #4]
     1b6:	f001 f87f 	bl	12b8 <_ZN4mbed6StreamD1Ev>
     1ba:	4620      	mov	r0, r4
     1bc:	bd10      	pop	{r4, pc}
     1be:	bf00      	nop
     1c0:	00007940 	.word	0x00007940

000001c4 <_ZThn72_N4mbed6SerialD1Ev>:
     1c4:	f1a0 0048 	sub.w	r0, r0, #72	; 0x48
     1c8:	f7ff bfea 	b.w	1a0 <_ZN4mbed6SerialD1Ev>

000001cc <_ZThn76_N4mbed6SerialD1Ev>:
     1cc:	f1a0 004c 	sub.w	r0, r0, #76	; 0x4c
     1d0:	f7ff bfe6 	b.w	1a0 <_ZN4mbed6SerialD1Ev>

000001d4 <_ZN4mbed10SerialBaseD0Ev>:
     1d4:	b510      	push	{r4, lr}
     1d6:	4604      	mov	r4, r0
     1d8:	f001 fc28 	bl	1a2c <_ZdlPv>
     1dc:	4620      	mov	r0, r4
     1de:	bd10      	pop	{r4, pc}

000001e0 <_Z8samplingPh>:
     1e0:	b5f0      	push	{r4, r5, r6, r7, lr}
     1e2:	4b0b      	ldr	r3, [pc, #44]	; (210 <_Z8samplingPh+0x30>)
     1e4:	2200      	movs	r2, #0
     1e6:	701a      	strb	r2, [r3, #0]
     1e8:	f893 e014 	ldrb.w	lr, [r3, #20]
     1ec:	7d1f      	ldrb	r7, [r3, #20]
     1ee:	7d1e      	ldrb	r6, [r3, #20]
     1f0:	7d1d      	ldrb	r5, [r3, #20]
     1f2:	7d1c      	ldrb	r4, [r3, #20]
     1f4:	7d19      	ldrb	r1, [r3, #20]
     1f6:	7d1a      	ldrb	r2, [r3, #20]
     1f8:	3314      	adds	r3, #20
     1fa:	781b      	ldrb	r3, [r3, #0]
     1fc:	f880 e000 	strb.w	lr, [r0]
     200:	7047      	strb	r7, [r0, #1]
     202:	7086      	strb	r6, [r0, #2]
     204:	70c5      	strb	r5, [r0, #3]
     206:	7104      	strb	r4, [r0, #4]
     208:	7141      	strb	r1, [r0, #5]
     20a:	7182      	strb	r2, [r0, #6]
     20c:	71c3      	strb	r3, [r0, #7]
     20e:	bdf0      	pop	{r4, r5, r6, r7, pc}
     210:	2009c002 	.word	0x2009c002

00000214 <_Z10serial_prtPh>:
     214:	b510      	push	{r4, lr}
     216:	2400      	movs	r4, #0
     218:	4b0e      	ldr	r3, [pc, #56]	; (254 <_Z10serial_prtPh+0x40>)
     21a:	480f      	ldr	r0, [pc, #60]	; (258 <_Z10serial_prtPh+0x44>)
     21c:	5ce3      	ldrb	r3, [r4, r3]
     21e:	2bfd      	cmp	r3, #253	; 0xfd
     220:	bf0c      	ite	eq
     222:	490e      	ldreq	r1, [pc, #56]	; (25c <_Z10serial_prtPh+0x48>)
     224:	490e      	ldrne	r1, [pc, #56]	; (260 <_Z10serial_prtPh+0x4c>)
     226:	f001 f88d 	bl	1344 <_ZN4mbed6Stream6printfEPKcz>
     22a:	b12c      	cbz	r4, 238 <_Z10serial_prtPh+0x24>
     22c:	0663      	lsls	r3, r4, #25
     22e:	d103      	bne.n	238 <_Z10serial_prtPh+0x24>
     230:	4809      	ldr	r0, [pc, #36]	; (258 <_Z10serial_prtPh+0x44>)
     232:	490c      	ldr	r1, [pc, #48]	; (264 <_Z10serial_prtPh+0x50>)
     234:	f001 f886 	bl	1344 <_ZN4mbed6Stream6printfEPKcz>
     238:	3401      	adds	r4, #1
     23a:	f5b4 6f80 	cmp.w	r4, #1024	; 0x400
     23e:	d1eb      	bne.n	218 <_Z10serial_prtPh+0x4>
     240:	4908      	ldr	r1, [pc, #32]	; (264 <_Z10serial_prtPh+0x50>)
     242:	4805      	ldr	r0, [pc, #20]	; (258 <_Z10serial_prtPh+0x44>)
     244:	f001 f87e 	bl	1344 <_ZN4mbed6Stream6printfEPKcz>
     248:	e8bd 4010 	ldmia.w	sp!, {r4, lr}
     24c:	4802      	ldr	r0, [pc, #8]	; (258 <_Z10serial_prtPh+0x44>)
     24e:	4906      	ldr	r1, [pc, #24]	; (268 <_Z10serial_prtPh+0x54>)
     250:	f001 b878 	b.w	1344 <_ZN4mbed6Stream6printfEPKcz>
     254:	100001fc 	.word	0x100001fc
     258:	100001e4 	.word	0x100001e4
     25c:	00007c3a 	.word	0x00007c3a
     260:	000074f4 	.word	0x000074f4
     264:	000074fa 	.word	0x000074fa
     268:	000074f6 	.word	0x000074f6

0000026c <main>:
     26c:	b510      	push	{r4, lr}
     26e:	4c07      	ldr	r4, [pc, #28]	; (28c <main+0x20>)
     270:	4620      	mov	r0, r4
     272:	f7ff ffb5 	bl	1e0 <_Z8samplingPh>
     276:	4806      	ldr	r0, [pc, #24]	; (290 <main+0x24>)
     278:	3408      	adds	r4, #8
     27a:	4284      	cmp	r4, r0
     27c:	d3f8      	bcc.n	270 <main+0x4>
     27e:	f2a0 30ff 	subw	r0, r0, #1023	; 0x3ff
     282:	f7ff ffc7 	bl	214 <_Z10serial_prtPh>
     286:	2000      	movs	r0, #0
     288:	bd10      	pop	{r4, pc}
     28a:	bf00      	nop
     28c:	100001fc 	.word	0x100001fc
     290:	100005fb 	.word	0x100005fb

00000294 <_ZN4mbed6SerialD0Ev>:
     294:	b510      	push	{r4, lr}
     296:	4604      	mov	r4, r0
     298:	f7ff ff82 	bl	1a0 <_ZN4mbed6SerialD1Ev>
     29c:	4620      	mov	r0, r4
     29e:	f001 fbc5 	bl	1a2c <_ZdlPv>
     2a2:	4620      	mov	r0, r4
     2a4:	bd10      	pop	{r4, pc}

000002a6 <_ZThn72_N4mbed6SerialD0Ev>:
     2a6:	f1a0 0048 	sub.w	r0, r0, #72	; 0x48
     2aa:	e7f3      	b.n	294 <_ZN4mbed6SerialD0Ev>

000002ac <_ZThn76_N4mbed6SerialD0Ev>:
     2ac:	f1a0 004c 	sub.w	r0, r0, #76	; 0x4c
     2b0:	e7f0      	b.n	294 <_ZN4mbed6SerialD0Ev>
	...

000002b4 <_GLOBAL__sub_I_pc>:
     2b4:	b510      	push	{r4, lr}
     2b6:	4c07      	ldr	r4, [pc, #28]	; (2d4 <_GLOBAL__sub_I_pc+0x20>)
     2b8:	4907      	ldr	r1, [pc, #28]	; (2d8 <_GLOBAL__sub_I_pc+0x24>)
     2ba:	4620      	mov	r0, r4
     2bc:	4a07      	ldr	r2, [pc, #28]	; (2dc <_GLOBAL__sub_I_pc+0x28>)
     2be:	2300      	movs	r3, #0
     2c0:	f001 f862 	bl	1388 <_ZN4mbed6SerialC1E7PinNameS1_PKc>
     2c4:	4620      	mov	r0, r4
     2c6:	e8bd 4010 	ldmia.w	sp!, {r4, lr}
     2ca:	4905      	ldr	r1, [pc, #20]	; (2e0 <_GLOBAL__sub_I_pc+0x2c>)
     2cc:	4a05      	ldr	r2, [pc, #20]	; (2e4 <_GLOBAL__sub_I_pc+0x30>)
     2ce:	f001 bbaf 	b.w	1a30 <__aeabi_atexit>
     2d2:	bf00      	nop
     2d4:	1000019c 	.word	0x1000019c
     2d8:	2009c002 	.word	0x2009c002
     2dc:	2009c003 	.word	0x2009c003
     2e0:	000001a1 	.word	0x000001a1
     2e4:	100000c8 	.word	0x100000c8

000002e8 <NVIC_SetVector>:
     2e8:	4a0c      	ldr	r2, [pc, #48]	; (31c <NVIC_SetVector+0x34>)
     2ea:	b430      	push	{r4, r5}
     2ec:	6893      	ldr	r3, [r2, #8]
     2ee:	6894      	ldr	r4, [r2, #8]
     2f0:	461a      	mov	r2, r3
     2f2:	f1b4 5f80 	cmp.w	r4, #268435456	; 0x10000000
     2f6:	d20c      	bcs.n	312 <NVIC_SetVector+0x2a>
     2f8:	4a09      	ldr	r2, [pc, #36]	; (320 <NVIC_SetVector+0x38>)
     2fa:	f103 05c4 	add.w	r5, r3, #196	; 0xc4
     2fe:	f853 4b04 	ldr.w	r4, [r3], #4
     302:	42ab      	cmp	r3, r5
     304:	f842 4f04 	str.w	r4, [r2, #4]!
     308:	d1f9      	bne.n	2fe <NVIC_SetVector+0x16>
     30a:	4b04      	ldr	r3, [pc, #16]	; (31c <NVIC_SetVector+0x34>)
     30c:	f04f 5280 	mov.w	r2, #268435456	; 0x10000000
     310:	609a      	str	r2, [r3, #8]
     312:	3010      	adds	r0, #16
     314:	f842 1020 	str.w	r1, [r2, r0, lsl #2]
     318:	bc30      	pop	{r4, r5}
     31a:	4770      	bx	lr
     31c:	e000ed00 	.word	0xe000ed00
     320:	0ffffffc 	.word	0x0ffffffc

00000324 <SystemInit>:
     324:	4a2b      	ldr	r2, [pc, #172]	; (3d4 <SystemInit+0xb0>)
     326:	2320      	movs	r3, #32
     328:	b470      	push	{r4, r5, r6}
     32a:	f8c2 31a0 	str.w	r3, [r2, #416]	; 0x1a0
     32e:	f8d2 31a0 	ldr.w	r3, [r2, #416]	; 0x1a0
     332:	0698      	lsls	r0, r3, #26
     334:	d445      	bmi.n	3c2 <SystemInit+0x9e>
     336:	4b27      	ldr	r3, [pc, #156]	; (3d4 <SystemInit+0xb0>)
     338:	2102      	movs	r1, #2
     33a:	2500      	movs	r5, #0
     33c:	2401      	movs	r4, #1
     33e:	20aa      	movs	r0, #170	; 0xaa
     340:	2255      	movs	r2, #85	; 0x55
     342:	260b      	movs	r6, #11
     344:	f8c3 1104 	str.w	r1, [r3, #260]	; 0x104
     348:	f8c3 51a8 	str.w	r5, [r3, #424]	; 0x1a8
     34c:	4619      	mov	r1, r3
     34e:	f8c3 51ac 	str.w	r5, [r3, #428]	; 0x1ac
     352:	f8c3 410c 	str.w	r4, [r3, #268]	; 0x10c
     356:	f8c3 6084 	str.w	r6, [r3, #132]	; 0x84
     35a:	f8c3 008c 	str.w	r0, [r3, #140]	; 0x8c
     35e:	f8c3 208c 	str.w	r2, [r3, #140]	; 0x8c
     362:	f8c3 4080 	str.w	r4, [r3, #128]	; 0x80
     366:	f8c3 008c 	str.w	r0, [r3, #140]	; 0x8c
     36a:	f8c3 208c 	str.w	r2, [r3, #140]	; 0x8c
     36e:	f8d1 3088 	ldr.w	r3, [r1, #136]	; 0x88
     372:	4a18      	ldr	r2, [pc, #96]	; (3d4 <SystemInit+0xb0>)
     374:	015b      	lsls	r3, r3, #5
     376:	d5fa      	bpl.n	36e <SystemInit+0x4a>
     378:	2103      	movs	r1, #3
     37a:	20aa      	movs	r0, #170	; 0xaa
     37c:	2355      	movs	r3, #85	; 0x55
     37e:	f8c2 1080 	str.w	r1, [r2, #128]	; 0x80
     382:	f8c2 008c 	str.w	r0, [r2, #140]	; 0x8c
     386:	4611      	mov	r1, r2
     388:	f8c2 308c 	str.w	r3, [r2, #140]	; 0x8c
     38c:	f8d1 3088 	ldr.w	r3, [r1, #136]	; 0x88
     390:	4a10      	ldr	r2, [pc, #64]	; (3d4 <SystemInit+0xb0>)
     392:	f013 7f40 	tst.w	r3, #50331648	; 0x3000000
     396:	d0f9      	beq.n	38c <SystemInit+0x68>
     398:	490f      	ldr	r1, [pc, #60]	; (3d8 <SystemInit+0xb4>)
     39a:	2300      	movs	r3, #0
     39c:	2005      	movs	r0, #5
     39e:	f8c2 0108 	str.w	r0, [r2, #264]	; 0x108
     3a2:	f8c2 10c4 	str.w	r1, [r2, #196]	; 0xc4
     3a6:	f8c2 31c8 	str.w	r3, [r2, #456]	; 0x1c8
     3aa:	6813      	ldr	r3, [r2, #0]
     3ac:	bc70      	pop	{r4, r5, r6}
     3ae:	f423 4370 	bic.w	r3, r3, #61440	; 0xf000
     3b2:	f023 033a 	bic.w	r3, r3, #58	; 0x3a
     3b6:	f443 5340 	orr.w	r3, r3, #12288	; 0x3000
     3ba:	f043 033a 	orr.w	r3, r3, #58	; 0x3a
     3be:	6013      	str	r3, [r2, #0]
     3c0:	4770      	bx	lr
     3c2:	f8d2 31a0 	ldr.w	r3, [r2, #416]	; 0x1a0
     3c6:	0659      	lsls	r1, r3, #25
     3c8:	d4b5      	bmi.n	336 <SystemInit+0x12>
     3ca:	f8d2 31a0 	ldr.w	r3, [r2, #416]	; 0x1a0
     3ce:	0659      	lsls	r1, r3, #25
     3d0:	d5f7      	bpl.n	3c2 <SystemInit+0x9e>
     3d2:	e7b0      	b.n	336 <SystemInit+0x12>
     3d4:	400fc000 	.word	0x400fc000
     3d8:	042887de 	.word	0x042887de

000003dc <mbed_die>:
     3dc:	b500      	push	{lr}
     3de:	b099      	sub	sp, #100	; 0x64
     3e0:	b672      	cpsid	i
     3e2:	493b      	ldr	r1, [pc, #236]	; (4d0 <mbed_die+0xf4>)
     3e4:	4668      	mov	r0, sp
     3e6:	f001 f823 	bl	1430 <gpio_init_out>
     3ea:	a806      	add	r0, sp, #24
     3ec:	4939      	ldr	r1, [pc, #228]	; (4d4 <mbed_die+0xf8>)
     3ee:	f001 f81f 	bl	1430 <gpio_init_out>
     3f2:	a80c      	add	r0, sp, #48	; 0x30
     3f4:	4938      	ldr	r1, [pc, #224]	; (4d8 <mbed_die+0xfc>)
     3f6:	f001 f81b 	bl	1430 <gpio_init_out>
     3fa:	a812      	add	r0, sp, #72	; 0x48
     3fc:	4937      	ldr	r1, [pc, #220]	; (4dc <mbed_die+0x100>)
     3fe:	f001 f817 	bl	1430 <gpio_init_out>
     402:	e032      	b.n	46a <mbed_die+0x8e>
     404:	9906      	ldr	r1, [sp, #24]
     406:	9b03      	ldr	r3, [sp, #12]
     408:	9a01      	ldr	r2, [sp, #4]
     40a:	3101      	adds	r1, #1
     40c:	601a      	str	r2, [r3, #0]
     40e:	d059      	beq.n	4c4 <mbed_die+0xe8>
     410:	990c      	ldr	r1, [sp, #48]	; 0x30
     412:	9b0a      	ldr	r3, [sp, #40]	; 0x28
     414:	9a07      	ldr	r2, [sp, #28]
     416:	3101      	adds	r1, #1
     418:	601a      	str	r2, [r3, #0]
     41a:	d04d      	beq.n	4b8 <mbed_die+0xdc>
     41c:	9912      	ldr	r1, [sp, #72]	; 0x48
     41e:	9b10      	ldr	r3, [sp, #64]	; 0x40
     420:	9a0d      	ldr	r2, [sp, #52]	; 0x34
     422:	3101      	adds	r1, #1
     424:	601a      	str	r2, [r3, #0]
     426:	d041      	beq.n	4ac <mbed_die+0xd0>
     428:	9b15      	ldr	r3, [sp, #84]	; 0x54
     42a:	9a13      	ldr	r2, [sp, #76]	; 0x4c
     42c:	2096      	movs	r0, #150	; 0x96
     42e:	601a      	str	r2, [r3, #0]
     430:	f001 f8c4 	bl	15bc <wait_ms>
     434:	9b00      	ldr	r3, [sp, #0]
     436:	3301      	adds	r3, #1
     438:	d032      	beq.n	4a0 <mbed_die+0xc4>
     43a:	9906      	ldr	r1, [sp, #24]
     43c:	9b04      	ldr	r3, [sp, #16]
     43e:	9a01      	ldr	r2, [sp, #4]
     440:	3101      	adds	r1, #1
     442:	601a      	str	r2, [r3, #0]
     444:	d026      	beq.n	494 <mbed_die+0xb8>
     446:	990c      	ldr	r1, [sp, #48]	; 0x30
     448:	9b09      	ldr	r3, [sp, #36]	; 0x24
     44a:	9a07      	ldr	r2, [sp, #28]
     44c:	3101      	adds	r1, #1
     44e:	601a      	str	r2, [r3, #0]
     450:	d01a      	beq.n	488 <mbed_die+0xac>
     452:	9912      	ldr	r1, [sp, #72]	; 0x48
     454:	9b0f      	ldr	r3, [sp, #60]	; 0x3c
     456:	9a0d      	ldr	r2, [sp, #52]	; 0x34
     458:	3101      	adds	r1, #1
     45a:	601a      	str	r2, [r3, #0]
     45c:	d00e      	beq.n	47c <mbed_die+0xa0>
     45e:	9b16      	ldr	r3, [sp, #88]	; 0x58
     460:	9a13      	ldr	r2, [sp, #76]	; 0x4c
     462:	2096      	movs	r0, #150	; 0x96
     464:	601a      	str	r2, [r3, #0]
     466:	f001 f8a9 	bl	15bc <wait_ms>
     46a:	9b00      	ldr	r3, [sp, #0]
     46c:	3301      	adds	r3, #1
     46e:	d1c9      	bne.n	404 <mbed_die+0x28>
     470:	481b      	ldr	r0, [pc, #108]	; (4e0 <mbed_die+0x104>)
     472:	491c      	ldr	r1, [pc, #112]	; (4e4 <mbed_die+0x108>)
     474:	2224      	movs	r2, #36	; 0x24
     476:	f000 ff9f 	bl	13b8 <mbed_assert_internal>
     47a:	e7c3      	b.n	404 <mbed_die+0x28>
     47c:	4818      	ldr	r0, [pc, #96]	; (4e0 <mbed_die+0x104>)
     47e:	4919      	ldr	r1, [pc, #100]	; (4e4 <mbed_die+0x108>)
     480:	2224      	movs	r2, #36	; 0x24
     482:	f000 ff99 	bl	13b8 <mbed_assert_internal>
     486:	e7ea      	b.n	45e <mbed_die+0x82>
     488:	4815      	ldr	r0, [pc, #84]	; (4e0 <mbed_die+0x104>)
     48a:	4916      	ldr	r1, [pc, #88]	; (4e4 <mbed_die+0x108>)
     48c:	2224      	movs	r2, #36	; 0x24
     48e:	f000 ff93 	bl	13b8 <mbed_assert_internal>
     492:	e7de      	b.n	452 <mbed_die+0x76>
     494:	4812      	ldr	r0, [pc, #72]	; (4e0 <mbed_die+0x104>)
     496:	4913      	ldr	r1, [pc, #76]	; (4e4 <mbed_die+0x108>)
     498:	2224      	movs	r2, #36	; 0x24
     49a:	f000 ff8d 	bl	13b8 <mbed_assert_internal>
     49e:	e7d2      	b.n	446 <mbed_die+0x6a>
     4a0:	480f      	ldr	r0, [pc, #60]	; (4e0 <mbed_die+0x104>)
     4a2:	4910      	ldr	r1, [pc, #64]	; (4e4 <mbed_die+0x108>)
     4a4:	2224      	movs	r2, #36	; 0x24
     4a6:	f000 ff87 	bl	13b8 <mbed_assert_internal>
     4aa:	e7c6      	b.n	43a <mbed_die+0x5e>
     4ac:	480c      	ldr	r0, [pc, #48]	; (4e0 <mbed_die+0x104>)
     4ae:	490d      	ldr	r1, [pc, #52]	; (4e4 <mbed_die+0x108>)
     4b0:	2224      	movs	r2, #36	; 0x24
     4b2:	f000 ff81 	bl	13b8 <mbed_assert_internal>
     4b6:	e7b7      	b.n	428 <mbed_die+0x4c>
     4b8:	4809      	ldr	r0, [pc, #36]	; (4e0 <mbed_die+0x104>)
     4ba:	490a      	ldr	r1, [pc, #40]	; (4e4 <mbed_die+0x108>)
     4bc:	2224      	movs	r2, #36	; 0x24
     4be:	f000 ff7b 	bl	13b8 <mbed_assert_internal>
     4c2:	e7ab      	b.n	41c <mbed_die+0x40>
     4c4:	4806      	ldr	r0, [pc, #24]	; (4e0 <mbed_die+0x104>)
     4c6:	4907      	ldr	r1, [pc, #28]	; (4e4 <mbed_die+0x108>)
     4c8:	2224      	movs	r2, #36	; 0x24
     4ca:	f000 ff75 	bl	13b8 <mbed_assert_internal>
     4ce:	e79f      	b.n	410 <mbed_die+0x34>
     4d0:	2009c032 	.word	0x2009c032
     4d4:	2009c034 	.word	0x2009c034
     4d8:	2009c035 	.word	0x2009c035
     4dc:	2009c037 	.word	0x2009c037
     4e0:	00007500 	.word	0x00007500
     4e4:	00007518 	.word	0x00007518

000004e8 <_ZN4mbed10FileHandle4flenEv>:
     4e8:	6803      	ldr	r3, [r0, #0]
     4ea:	b570      	push	{r4, r5, r6, lr}
     4ec:	691b      	ldr	r3, [r3, #16]
     4ee:	2100      	movs	r1, #0
     4f0:	2201      	movs	r2, #1
     4f2:	4604      	mov	r4, r0
     4f4:	4798      	blx	r3
     4f6:	1c43      	adds	r3, r0, #1
     4f8:	4605      	mov	r5, r0
     4fa:	d00e      	beq.n	51a <_ZN4mbed10FileHandle4flenEv+0x32>
     4fc:	6823      	ldr	r3, [r4, #0]
     4fe:	4620      	mov	r0, r4
     500:	691b      	ldr	r3, [r3, #16]
     502:	2100      	movs	r1, #0
     504:	2202      	movs	r2, #2
     506:	4798      	blx	r3
     508:	6823      	ldr	r3, [r4, #0]
     50a:	4606      	mov	r6, r0
     50c:	4629      	mov	r1, r5
     50e:	691b      	ldr	r3, [r3, #16]
     510:	4620      	mov	r0, r4
     512:	2200      	movs	r2, #0
     514:	4798      	blx	r3
     516:	4630      	mov	r0, r6
     518:	bd70      	pop	{r4, r5, r6, pc}
     51a:	bd70      	pop	{r4, r5, r6, pc}

0000051c <_ZN4mbed10FileHandleD1Ev>:
     51c:	4a08      	ldr	r2, [pc, #32]	; (540 <_ZN4mbed10FileHandleD1Ev+0x24>)
     51e:	4b09      	ldr	r3, [pc, #36]	; (544 <_ZN4mbed10FileHandleD1Ev+0x28>)
     520:	b410      	push	{r4}
     522:	6002      	str	r2, [r0, #0]
     524:	f503 7180 	add.w	r1, r3, #256	; 0x100
     528:	2400      	movs	r4, #0
     52a:	f853 2b04 	ldr.w	r2, [r3], #4
     52e:	4282      	cmp	r2, r0
     530:	bf08      	it	eq
     532:	f843 4c04 	streq.w	r4, [r3, #-4]
     536:	428b      	cmp	r3, r1
     538:	d1f7      	bne.n	52a <_ZN4mbed10FileHandleD1Ev+0xe>
     53a:	f85d 4b04 	ldr.w	r4, [sp], #4
     53e:	4770      	bx	lr
     540:	000075a0 	.word	0x000075a0
     544:	100005fc 	.word	0x100005fc

00000548 <_ZN4mbed10FileHandleD0Ev>:
     548:	4a0a      	ldr	r2, [pc, #40]	; (574 <_ZN4mbed10FileHandleD0Ev+0x2c>)
     54a:	4b0b      	ldr	r3, [pc, #44]	; (578 <_ZN4mbed10FileHandleD0Ev+0x30>)
     54c:	b510      	push	{r4, lr}
     54e:	f503 7180 	add.w	r1, r3, #256	; 0x100
     552:	4604      	mov	r4, r0
     554:	6002      	str	r2, [r0, #0]
     556:	2000      	movs	r0, #0
     558:	f853 2b04 	ldr.w	r2, [r3], #4
     55c:	4294      	cmp	r4, r2
     55e:	bf08      	it	eq
     560:	f843 0c04 	streq.w	r0, [r3, #-4]
     564:	428b      	cmp	r3, r1
     566:	d1f7      	bne.n	558 <_ZN4mbed10FileHandleD0Ev+0x10>
     568:	4620      	mov	r0, r4
     56a:	f001 fa5f 	bl	1a2c <_ZdlPv>
     56e:	4620      	mov	r0, r4
     570:	bd10      	pop	{r4, pc}
     572:	bf00      	nop
     574:	000075a0 	.word	0x000075a0
     578:	100005fc 	.word	0x100005fc

0000057c <_ZL11init_serialv.part.0>:
     57c:	4802      	ldr	r0, [pc, #8]	; (588 <_ZL11init_serialv.part.0+0xc>)
     57e:	4903      	ldr	r1, [pc, #12]	; (58c <_ZL11init_serialv.part.0+0x10>)
     580:	4a03      	ldr	r2, [pc, #12]	; (590 <_ZL11init_serialv.part.0+0x14>)
     582:	f000 bd29 	b.w	fd8 <serial_init>
     586:	bf00      	nop
     588:	100007fc 	.word	0x100007fc
     58c:	2009c002 	.word	0x2009c002
     590:	2009c003 	.word	0x2009c003

00000594 <_open>:
     594:	b5f0      	push	{r4, r5, r6, r7, lr}
     596:	460e      	mov	r6, r1
     598:	b085      	sub	sp, #20
     59a:	4935      	ldr	r1, [pc, #212]	; (670 <_open+0xdc>)
     59c:	4605      	mov	r5, r0
     59e:	f003 f900 	bl	37a2 <strcmp>
     5a2:	b920      	cbnz	r0, 5ae <_open+0x1a>
     5a4:	4b33      	ldr	r3, [pc, #204]	; (674 <_open+0xe0>)
     5a6:	681b      	ldr	r3, [r3, #0]
     5a8:	b163      	cbz	r3, 5c4 <_open+0x30>
     5aa:	b005      	add	sp, #20
     5ac:	bdf0      	pop	{r4, r5, r6, r7, pc}
     5ae:	4628      	mov	r0, r5
     5b0:	4931      	ldr	r1, [pc, #196]	; (678 <_open+0xe4>)
     5b2:	f003 f8f6 	bl	37a2 <strcmp>
     5b6:	b978      	cbnz	r0, 5d8 <_open+0x44>
     5b8:	4b2e      	ldr	r3, [pc, #184]	; (674 <_open+0xe0>)
     5ba:	681b      	ldr	r3, [r3, #0]
     5bc:	b143      	cbz	r3, 5d0 <_open+0x3c>
     5be:	2001      	movs	r0, #1
     5c0:	b005      	add	sp, #20
     5c2:	bdf0      	pop	{r4, r5, r6, r7, pc}
     5c4:	9001      	str	r0, [sp, #4]
     5c6:	f7ff ffd9 	bl	57c <_ZL11init_serialv.part.0>
     5ca:	9801      	ldr	r0, [sp, #4]
     5cc:	b005      	add	sp, #20
     5ce:	bdf0      	pop	{r4, r5, r6, r7, pc}
     5d0:	f7ff ffd4 	bl	57c <_ZL11init_serialv.part.0>
     5d4:	2001      	movs	r0, #1
     5d6:	e7e8      	b.n	5aa <_open+0x16>
     5d8:	4628      	mov	r0, r5
     5da:	4928      	ldr	r1, [pc, #160]	; (67c <_open+0xe8>)
     5dc:	f003 f8e1 	bl	37a2 <strcmp>
     5e0:	b310      	cbz	r0, 628 <_open+0x94>
     5e2:	4b27      	ldr	r3, [pc, #156]	; (680 <_open+0xec>)
     5e4:	2400      	movs	r4, #0
     5e6:	e002      	b.n	5ee <_open+0x5a>
     5e8:	3401      	adds	r4, #1
     5ea:	2c40      	cmp	r4, #64	; 0x40
     5ec:	d021      	beq.n	632 <_open+0x9e>
     5ee:	f853 0f04 	ldr.w	r0, [r3, #4]!
     5f2:	2800      	cmp	r0, #0
     5f4:	d1f8      	bne.n	5e8 <_open+0x54>
     5f6:	782b      	ldrb	r3, [r5, #0]
     5f8:	2b3a      	cmp	r3, #58	; 0x3a
     5fa:	d032      	beq.n	662 <_open+0xce>
     5fc:	4629      	mov	r1, r5
     5fe:	a802      	add	r0, sp, #8
     600:	f000 fdc8 	bl	1194 <_ZN4mbed8FilePathC1EPKc>
     604:	a802      	add	r0, sp, #8
     606:	f000 fe17 	bl	1238 <_ZN4mbed8FilePath6existsEv>
     60a:	b190      	cbz	r0, 632 <_open+0x9e>
     60c:	a802      	add	r0, sp, #8
     60e:	f000 fdfb 	bl	1208 <_ZN4mbed8FilePath6isFileEv>
     612:	b188      	cbz	r0, 638 <_open+0xa4>
     614:	a802      	add	r0, sp, #8
     616:	f000 fe01 	bl	121c <_ZN4mbed8FilePath4fileEv>
     61a:	4603      	mov	r3, r0
     61c:	b14b      	cbz	r3, 632 <_open+0x9e>
     61e:	4a19      	ldr	r2, [pc, #100]	; (684 <_open+0xf0>)
     620:	1ce0      	adds	r0, r4, #3
     622:	f842 3024 	str.w	r3, [r2, r4, lsl #2]
     626:	e7c0      	b.n	5aa <_open+0x16>
     628:	4b12      	ldr	r3, [pc, #72]	; (674 <_open+0xe0>)
     62a:	681b      	ldr	r3, [r3, #0]
     62c:	b1ab      	cbz	r3, 65a <_open+0xc6>
     62e:	2002      	movs	r0, #2
     630:	e7bb      	b.n	5aa <_open+0x16>
     632:	f04f 30ff 	mov.w	r0, #4294967295
     636:	e7b8      	b.n	5aa <_open+0x16>
     638:	a802      	add	r0, sp, #8
     63a:	f000 fdd9 	bl	11f0 <_ZN4mbed8FilePath10fileSystemEv>
     63e:	4605      	mov	r5, r0
     640:	2800      	cmp	r0, #0
     642:	d0f6      	beq.n	632 <_open+0x9e>
     644:	6803      	ldr	r3, [r0, #0]
     646:	a802      	add	r0, sp, #8
     648:	689f      	ldr	r7, [r3, #8]
     64a:	f000 fdcf 	bl	11ec <_ZN4mbed8FilePath8fileNameEv>
     64e:	4632      	mov	r2, r6
     650:	4601      	mov	r1, r0
     652:	4628      	mov	r0, r5
     654:	47b8      	blx	r7
     656:	4603      	mov	r3, r0
     658:	e7e0      	b.n	61c <_open+0x88>
     65a:	f7ff ff8f 	bl	57c <_ZL11init_serialv.part.0>
     65e:	2002      	movs	r0, #2
     660:	e7a3      	b.n	5aa <_open+0x16>
     662:	4628      	mov	r0, r5
     664:	4908      	ldr	r1, [pc, #32]	; (688 <_open+0xf4>)
     666:	aa02      	add	r2, sp, #8
     668:	f003 f82c 	bl	36c4 <siscanf>
     66c:	9b02      	ldr	r3, [sp, #8]
     66e:	e7d5      	b.n	61c <_open+0x88>
     670:	00007580 	.word	0x00007580
     674:	100006fc 	.word	0x100006fc
     678:	00007590 	.word	0x00007590
     67c:	00007588 	.word	0x00007588
     680:	100005f8 	.word	0x100005f8
     684:	100005fc 	.word	0x100005fc
     688:	000075c8 	.word	0x000075c8

0000068c <_close>:
     68c:	2802      	cmp	r0, #2
     68e:	b508      	push	{r3, lr}
     690:	dd0b      	ble.n	6aa <_close+0x1e>
     692:	4b08      	ldr	r3, [pc, #32]	; (6b4 <_close+0x28>)
     694:	1ec2      	subs	r2, r0, #3
     696:	f853 0022 	ldr.w	r0, [r3, r2, lsl #2]
     69a:	2100      	movs	r1, #0
     69c:	f843 1022 	str.w	r1, [r3, r2, lsl #2]
     6a0:	b128      	cbz	r0, 6ae <_close+0x22>
     6a2:	6803      	ldr	r3, [r0, #0]
     6a4:	685b      	ldr	r3, [r3, #4]
     6a6:	4798      	blx	r3
     6a8:	bd08      	pop	{r3, pc}
     6aa:	2000      	movs	r0, #0
     6ac:	bd08      	pop	{r3, pc}
     6ae:	f04f 30ff 	mov.w	r0, #4294967295
     6b2:	bd08      	pop	{r3, pc}
     6b4:	100005fc 	.word	0x100005fc

000006b8 <_write>:
     6b8:	2802      	cmp	r0, #2
     6ba:	b570      	push	{r4, r5, r6, lr}
     6bc:	460c      	mov	r4, r1
     6be:	4616      	mov	r6, r2
     6c0:	dc0f      	bgt.n	6e2 <_write+0x2a>
     6c2:	4b0e      	ldr	r3, [pc, #56]	; (6fc <_write+0x44>)
     6c4:	681b      	ldr	r3, [r3, #0]
     6c6:	b90b      	cbnz	r3, 6cc <_write+0x14>
     6c8:	f7ff ff58 	bl	57c <_ZL11init_serialv.part.0>
     6cc:	19a5      	adds	r5, r4, r6
     6ce:	b136      	cbz	r6, 6de <_write+0x26>
     6d0:	f814 1b01 	ldrb.w	r1, [r4], #1
     6d4:	480a      	ldr	r0, [pc, #40]	; (700 <_write+0x48>)
     6d6:	f000 fbcf 	bl	e78 <serial_putc>
     6da:	42ac      	cmp	r4, r5
     6dc:	d1f8      	bne.n	6d0 <_write+0x18>
     6de:	4630      	mov	r0, r6
     6e0:	bd70      	pop	{r4, r5, r6, pc}
     6e2:	4b08      	ldr	r3, [pc, #32]	; (704 <_write+0x4c>)
     6e4:	3803      	subs	r0, #3
     6e6:	f853 0020 	ldr.w	r0, [r3, r0, lsl #2]
     6ea:	b118      	cbz	r0, 6f4 <_write+0x3c>
     6ec:	6803      	ldr	r3, [r0, #0]
     6ee:	681b      	ldr	r3, [r3, #0]
     6f0:	4798      	blx	r3
     6f2:	bd70      	pop	{r4, r5, r6, pc}
     6f4:	f04f 30ff 	mov.w	r0, #4294967295
     6f8:	bd70      	pop	{r4, r5, r6, pc}
     6fa:	bf00      	nop
     6fc:	100006fc 	.word	0x100006fc
     700:	100007fc 	.word	0x100007fc
     704:	100005fc 	.word	0x100005fc

00000708 <_read>:
     708:	2802      	cmp	r0, #2
     70a:	b510      	push	{r4, lr}
     70c:	460c      	mov	r4, r1
     70e:	dc09      	bgt.n	724 <_read+0x1c>
     710:	4b0d      	ldr	r3, [pc, #52]	; (748 <_read+0x40>)
     712:	681b      	ldr	r3, [r3, #0]
     714:	b18b      	cbz	r3, 73a <_read+0x32>
     716:	480d      	ldr	r0, [pc, #52]	; (74c <_read+0x44>)
     718:	f000 fb58 	bl	dcc <serial_getc>
     71c:	2301      	movs	r3, #1
     71e:	7020      	strb	r0, [r4, #0]
     720:	4618      	mov	r0, r3
     722:	bd10      	pop	{r4, pc}
     724:	4b0a      	ldr	r3, [pc, #40]	; (750 <_read+0x48>)
     726:	3803      	subs	r0, #3
     728:	f853 0020 	ldr.w	r0, [r3, r0, lsl #2]
     72c:	b140      	cbz	r0, 740 <_read+0x38>
     72e:	6803      	ldr	r3, [r0, #0]
     730:	689b      	ldr	r3, [r3, #8]
     732:	4798      	blx	r3
     734:	4603      	mov	r3, r0
     736:	4618      	mov	r0, r3
     738:	bd10      	pop	{r4, pc}
     73a:	f7ff ff1f 	bl	57c <_ZL11init_serialv.part.0>
     73e:	e7ea      	b.n	716 <_read+0xe>
     740:	f04f 33ff 	mov.w	r3, #4294967295
     744:	e7ec      	b.n	720 <_read+0x18>
     746:	bf00      	nop
     748:	100006fc 	.word	0x100006fc
     74c:	100007fc 	.word	0x100007fc
     750:	100005fc 	.word	0x100005fc

00000754 <_isatty>:
     754:	2802      	cmp	r0, #2
     756:	b508      	push	{r3, lr}
     758:	dd08      	ble.n	76c <_isatty+0x18>
     75a:	4b07      	ldr	r3, [pc, #28]	; (778 <_isatty+0x24>)
     75c:	3803      	subs	r0, #3
     75e:	f853 0020 	ldr.w	r0, [r3, r0, lsl #2]
     762:	b128      	cbz	r0, 770 <_isatty+0x1c>
     764:	6803      	ldr	r3, [r0, #0]
     766:	68db      	ldr	r3, [r3, #12]
     768:	4798      	blx	r3
     76a:	bd08      	pop	{r3, pc}
     76c:	2001      	movs	r0, #1
     76e:	bd08      	pop	{r3, pc}
     770:	f04f 30ff 	mov.w	r0, #4294967295
     774:	bd08      	pop	{r3, pc}
     776:	bf00      	nop
     778:	100005fc 	.word	0x100005fc

0000077c <_lseek>:
     77c:	2802      	cmp	r0, #2
     77e:	b508      	push	{r3, lr}
     780:	dd08      	ble.n	794 <_lseek+0x18>
     782:	4b07      	ldr	r3, [pc, #28]	; (7a0 <_lseek+0x24>)
     784:	3803      	subs	r0, #3
     786:	f853 0020 	ldr.w	r0, [r3, r0, lsl #2]
     78a:	b128      	cbz	r0, 798 <_lseek+0x1c>
     78c:	6803      	ldr	r3, [r0, #0]
     78e:	691b      	ldr	r3, [r3, #16]
     790:	4798      	blx	r3
     792:	bd08      	pop	{r3, pc}
     794:	2000      	movs	r0, #0
     796:	bd08      	pop	{r3, pc}
     798:	f04f 30ff 	mov.w	r0, #4294967295
     79c:	bd08      	pop	{r3, pc}
     79e:	bf00      	nop
     7a0:	100005fc 	.word	0x100005fc

000007a4 <_fstat>:
     7a4:	2802      	cmp	r0, #2
     7a6:	b508      	push	{r3, lr}
     7a8:	d804      	bhi.n	7b4 <_fstat+0x10>
     7aa:	f44f 5300 	mov.w	r3, #8192	; 0x2000
     7ae:	604b      	str	r3, [r1, #4]
     7b0:	2000      	movs	r0, #0
     7b2:	bd08      	pop	{r3, pc}
     7b4:	f001 f954 	bl	1a60 <__errno>
     7b8:	2309      	movs	r3, #9
     7ba:	6003      	str	r3, [r0, #0]
     7bc:	f04f 30ff 	mov.w	r0, #4294967295
     7c0:	bd08      	pop	{r3, pc}
     7c2:	bf00      	nop

000007c4 <__cxa_pure_virtual>:
     7c4:	b508      	push	{r3, lr}
     7c6:	2001      	movs	r0, #1
     7c8:	f001 f950 	bl	1a6c <exit>

000007cc <mbed_main>:
     7cc:	4770      	bx	lr
     7ce:	bf00      	nop

000007d0 <mbed_sdk_init>:
     7d0:	4770      	bx	lr
     7d2:	bf00      	nop

000007d4 <__wrap_main>:
     7d4:	b508      	push	{r3, lr}
     7d6:	f7ff fffb 	bl	7d0 <mbed_sdk_init>
     7da:	f7ff fff7 	bl	7cc <mbed_main>
     7de:	e8bd 4008 	ldmia.w	sp!, {r3, lr}
     7e2:	f7ff bd43 	b.w	26c <main>
     7e6:	bf00      	nop

000007e8 <_sbrk>:
     7e8:	4a07      	ldr	r2, [pc, #28]	; (808 <Heap_Size+0x8>)
     7ea:	6813      	ldr	r3, [r2, #0]
     7ec:	4418      	add	r0, r3
     7ee:	f3ef 8108 	mrs	r1, MSP
     7f2:	4288      	cmp	r0, r1
     7f4:	d202      	bcs.n	7fc <_sbrk+0x14>
     7f6:	6010      	str	r0, [r2, #0]
     7f8:	4618      	mov	r0, r3
     7fa:	4770      	bx	lr
     7fc:	4b03      	ldr	r3, [pc, #12]	; (80c <Heap_Size+0xc>)
     7fe:	220c      	movs	r2, #12
     800:	601a      	str	r2, [r3, #0]
     802:	f04f 30ff 	mov.w	r0, #4294967295
     806:	4770      	bx	lr
     808:	100000d0 	.word	0x100000d0
     80c:	10000804 	.word	0x10000804

00000810 <_exit>:
     810:	4c0a      	ldr	r4, [pc, #40]	; (83c <_exit+0x2c>)
     812:	b508      	push	{r3, lr}
     814:	6823      	ldr	r3, [r4, #0]
     816:	4605      	mov	r5, r0
     818:	6898      	ldr	r0, [r3, #8]
     81a:	f001 fa43 	bl	1ca4 <fflush>
     81e:	6823      	ldr	r3, [r4, #0]
     820:	68d8      	ldr	r0, [r3, #12]
     822:	f001 fa3f 	bl	1ca4 <fflush>
     826:	f000 fdef 	bl	1408 <mbed_interface_connected>
     82a:	b920      	cbnz	r0, 836 <_exit+0x26>
     82c:	b905      	cbnz	r5, 830 <_exit+0x20>
     82e:	e7fe      	b.n	82e <_exit+0x1e>
     830:	f7ff fdd4 	bl	3dc <mbed_die>
     834:	e7fb      	b.n	82e <_exit+0x1e>
     836:	f000 fea1 	bl	157c <semihost_exit>
     83a:	e7f7      	b.n	82c <_exit+0x1c>
     83c:	10000134 	.word	0x10000134

00000840 <_ZN4mbed26mbed_set_unbuffered_streamEP7__sFILE>:
     840:	2100      	movs	r1, #0
     842:	f002 be86 	b.w	3552 <setbuf>
     846:	bf00      	nop

00000848 <Reset_Handler>:
     848:	4906      	ldr	r1, [pc, #24]	; (864 <Reset_Handler+0x1c>)
     84a:	4a07      	ldr	r2, [pc, #28]	; (868 <Reset_Handler+0x20>)
     84c:	4b07      	ldr	r3, [pc, #28]	; (86c <Reset_Handler+0x24>)
     84e:	429a      	cmp	r2, r3
     850:	bfbe      	ittt	lt
     852:	f851 0b04 	ldrlt.w	r0, [r1], #4
     856:	f842 0b04 	strlt.w	r0, [r2], #4
     85a:	e7f8      	blt.n	84e <Reset_Handler+0x6>
     85c:	4804      	ldr	r0, [pc, #16]	; (870 <Reset_Handler+0x28>)
     85e:	4780      	blx	r0
     860:	4804      	ldr	r0, [pc, #16]	; (874 <Reset_Handler+0x2c>)
     862:	4700      	bx	r0
     864:	00007ee0 	.word	0x00007ee0
     868:	100000c8 	.word	0x100000c8
     86c:	10000180 	.word	0x10000180
     870:	00000325 	.word	0x00000325
     874:	00000129 	.word	0x00000129

00000878 <NMI_Handler>:
     878:	e7fe      	b.n	878 <NMI_Handler>

0000087a <HardFault_Handler>:
     87a:	e7fe      	b.n	87a <HardFault_Handler>

0000087c <MemManage_Handler>:
     87c:	e7fe      	b.n	87c <MemManage_Handler>

0000087e <BusFault_Handler>:
     87e:	e7fe      	b.n	87e <BusFault_Handler>

00000880 <UsageFault_Handler>:
     880:	e7fe      	b.n	880 <UsageFault_Handler>

00000882 <SVC_Handler>:
     882:	e7fe      	b.n	882 <SVC_Handler>

00000884 <DebugMon_Handler>:
     884:	e7fe      	b.n	884 <DebugMon_Handler>

00000886 <PendSV_Handler>:
     886:	e7fe      	b.n	886 <PendSV_Handler>

00000888 <SysTick_Handler>:
     888:	e7fe      	b.n	888 <SysTick_Handler>

0000088a <ADC_IRQHandler>:
     88a:	e7fe      	b.n	88a <ADC_IRQHandler>

0000088c <uart2_irq>:
     88c:	b508      	push	{r3, lr}
     88e:	4a15      	ldr	r2, [pc, #84]	; (8e4 <uart2_irq+0x58>)
     890:	6893      	ldr	r3, [r2, #8]
     892:	f3c3 0342 	ubfx	r3, r3, #1, #3
     896:	2b01      	cmp	r3, #1
     898:	d01e      	beq.n	8d8 <uart2_irq+0x4c>
     89a:	2b02      	cmp	r3, #2
     89c:	d119      	bne.n	8d2 <uart2_irq+0x46>
     89e:	4b12      	ldr	r3, [pc, #72]	; (8e8 <uart2_irq+0x5c>)
     8a0:	6f59      	ldr	r1, [r3, #116]	; 0x74
     8a2:	3101      	adds	r1, #1
     8a4:	d00a      	beq.n	8bc <uart2_irq+0x30>
     8a6:	f8d3 1080 	ldr.w	r1, [r3, #128]	; 0x80
     8aa:	6f98      	ldr	r0, [r3, #120]	; 0x78
     8ac:	6008      	str	r0, [r1, #0]
     8ae:	f893 10a6 	ldrb.w	r1, [r3, #166]	; 0xa6
     8b2:	b919      	cbnz	r1, 8bc <uart2_irq+0x30>
     8b4:	6851      	ldr	r1, [r2, #4]
     8b6:	f021 0101 	bic.w	r1, r1, #1
     8ba:	6051      	str	r1, [r2, #4]
     8bc:	6f18      	ldr	r0, [r3, #112]	; 0x70
     8be:	4b0a      	ldr	r3, [pc, #40]	; (8e8 <uart2_irq+0x5c>)
     8c0:	b148      	cbz	r0, 8d6 <uart2_irq+0x4a>
     8c2:	f893 30a6 	ldrb.w	r3, [r3, #166]	; 0xa6
     8c6:	b12b      	cbz	r3, 8d4 <uart2_irq+0x48>
     8c8:	2100      	movs	r1, #0
     8ca:	4a08      	ldr	r2, [pc, #32]	; (8ec <uart2_irq+0x60>)
     8cc:	6813      	ldr	r3, [r2, #0]
     8ce:	4798      	blx	r3
     8d0:	bd08      	pop	{r3, pc}
     8d2:	bd08      	pop	{r3, pc}
     8d4:	bd08      	pop	{r3, pc}
     8d6:	bd08      	pop	{r3, pc}
     8d8:	4a03      	ldr	r2, [pc, #12]	; (8e8 <uart2_irq+0x5c>)
     8da:	6f10      	ldr	r0, [r2, #112]	; 0x70
     8dc:	2800      	cmp	r0, #0
     8de:	d0f9      	beq.n	8d4 <uart2_irq+0x48>
     8e0:	4619      	mov	r1, r3
     8e2:	e7f2      	b.n	8ca <uart2_irq+0x3e>
     8e4:	40098000 	.word	0x40098000
     8e8:	10000704 	.word	0x10000704
     8ec:	10000700 	.word	0x10000700

000008f0 <serial_irq_set_internal>:
     8f0:	b570      	push	{r4, r5, r6, lr}
     8f2:	6803      	ldr	r3, [r0, #0]
     8f4:	4c29      	ldr	r4, [pc, #164]	; (99c <serial_irq_set_internal+0xac>)
     8f6:	42a3      	cmp	r3, r4
     8f8:	d049      	beq.n	98e <serial_irq_set_internal+0x9e>
     8fa:	dd41      	ble.n	980 <serial_irq_set_internal+0x90>
     8fc:	4c28      	ldr	r4, [pc, #160]	; (9a0 <serial_irq_set_internal+0xb0>)
     8fe:	42a3      	cmp	r3, r4
     900:	d02a      	beq.n	958 <serial_irq_set_internal+0x68>
     902:	f504 4480 	add.w	r4, r4, #16384	; 0x4000
     906:	42a3      	cmp	r3, r4
     908:	d144      	bne.n	994 <serial_irq_set_internal+0xa4>
     90a:	4c26      	ldr	r4, [pc, #152]	; (9a4 <serial_irq_set_internal+0xb4>)
     90c:	2608      	movs	r6, #8
     90e:	bb3a      	cbnz	r2, 960 <serial_irq_set_internal+0x70>
     910:	2901      	cmp	r1, #1
     912:	d00b      	beq.n	92c <serial_irq_set_internal+0x3c>
     914:	6845      	ldr	r5, [r0, #4]
     916:	4a24      	ldr	r2, [pc, #144]	; (9a8 <serial_irq_set_internal+0xb8>)
     918:	ebc5 05c5 	rsb	r5, r5, r5, lsl #3
     91c:	eb02 04c5 	add.w	r4, r2, r5, lsl #3
     920:	f894 5035 	ldrb.w	r5, [r4, #53]	; 0x35
     924:	f894 2036 	ldrb.w	r2, [r4, #54]	; 0x36
     928:	42ea      	cmn	r2, r5
     92a:	d114      	bne.n	956 <serial_irq_set_internal+0x66>
     92c:	2201      	movs	r2, #1
     92e:	fa02 f501 	lsl.w	r5, r2, r1
     932:	f1d1 0101 	rsbs	r1, r1, #1
     936:	bf38      	it	cc
     938:	2100      	movcc	r1, #0
     93a:	fa02 f101 	lsl.w	r1, r2, r1
     93e:	685c      	ldr	r4, [r3, #4]
     940:	ea24 0405 	bic.w	r4, r4, r5
     944:	605c      	str	r4, [r3, #4]
     946:	6803      	ldr	r3, [r0, #0]
     948:	685b      	ldr	r3, [r3, #4]
     94a:	4219      	tst	r1, r3
     94c:	d103      	bne.n	956 <serial_irq_set_internal+0x66>
     94e:	40b2      	lsls	r2, r6
     950:	4b16      	ldr	r3, [pc, #88]	; (9ac <serial_irq_set_internal+0xbc>)
     952:	f8c3 2080 	str.w	r2, [r3, #128]	; 0x80
     956:	bd70      	pop	{r4, r5, r6, pc}
     958:	4c15      	ldr	r4, [pc, #84]	; (9b0 <serial_irq_set_internal+0xc0>)
     95a:	2607      	movs	r6, #7
     95c:	2a00      	cmp	r2, #0
     95e:	d0d7      	beq.n	910 <serial_irq_set_internal+0x20>
     960:	2501      	movs	r5, #1
     962:	fa05 f101 	lsl.w	r1, r5, r1
     966:	b276      	sxtb	r6, r6
     968:	4630      	mov	r0, r6
     96a:	fa05 f606 	lsl.w	r6, r5, r6
     96e:	685a      	ldr	r2, [r3, #4]
     970:	430a      	orrs	r2, r1
     972:	605a      	str	r2, [r3, #4]
     974:	4621      	mov	r1, r4
     976:	f7ff fcb7 	bl	2e8 <NVIC_SetVector>
     97a:	4b0c      	ldr	r3, [pc, #48]	; (9ac <serial_irq_set_internal+0xbc>)
     97c:	601e      	str	r6, [r3, #0]
     97e:	bd70      	pop	{r4, r5, r6, pc}
     980:	f5a4 4480 	sub.w	r4, r4, #16384	; 0x4000
     984:	42a3      	cmp	r3, r4
     986:	d105      	bne.n	994 <serial_irq_set_internal+0xa4>
     988:	4c0a      	ldr	r4, [pc, #40]	; (9b4 <serial_irq_set_internal+0xc4>)
     98a:	2605      	movs	r6, #5
     98c:	e7bf      	b.n	90e <serial_irq_set_internal+0x1e>
     98e:	4c0a      	ldr	r4, [pc, #40]	; (9b8 <serial_irq_set_internal+0xc8>)
     990:	2606      	movs	r6, #6
     992:	e7bc      	b.n	90e <serial_irq_set_internal+0x1e>
     994:	2400      	movs	r4, #0
     996:	4626      	mov	r6, r4
     998:	e7b9      	b.n	90e <serial_irq_set_internal+0x1e>
     99a:	bf00      	nop
     99c:	40010000 	.word	0x40010000
     9a0:	40098000 	.word	0x40098000
     9a4:	00000a21 	.word	0x00000a21
     9a8:	10000704 	.word	0x10000704
     9ac:	e000e100 	.word	0xe000e100
     9b0:	0000088d 	.word	0x0000088d
     9b4:	000009bd 	.word	0x000009bd
     9b8:	00000a8d 	.word	0x00000a8d

000009bc <uart0_irq>:
     9bc:	b508      	push	{r3, lr}
     9be:	4a15      	ldr	r2, [pc, #84]	; (a14 <uart0_irq+0x58>)
     9c0:	6893      	ldr	r3, [r2, #8]
     9c2:	f3c3 0342 	ubfx	r3, r3, #1, #3
     9c6:	2b01      	cmp	r3, #1
     9c8:	d01d      	beq.n	a06 <uart0_irq+0x4a>
     9ca:	2b02      	cmp	r3, #2
     9cc:	d118      	bne.n	a00 <uart0_irq+0x44>
     9ce:	4b12      	ldr	r3, [pc, #72]	; (a18 <uart0_irq+0x5c>)
     9d0:	6859      	ldr	r1, [r3, #4]
     9d2:	3101      	adds	r1, #1
     9d4:	d009      	beq.n	9ea <uart0_irq+0x2e>
     9d6:	6919      	ldr	r1, [r3, #16]
     9d8:	6898      	ldr	r0, [r3, #8]
     9da:	6008      	str	r0, [r1, #0]
     9dc:	f893 1036 	ldrb.w	r1, [r3, #54]	; 0x36
     9e0:	b919      	cbnz	r1, 9ea <uart0_irq+0x2e>
     9e2:	6851      	ldr	r1, [r2, #4]
     9e4:	f021 0101 	bic.w	r1, r1, #1
     9e8:	6051      	str	r1, [r2, #4]
     9ea:	6818      	ldr	r0, [r3, #0]
     9ec:	4b0a      	ldr	r3, [pc, #40]	; (a18 <uart0_irq+0x5c>)
     9ee:	b148      	cbz	r0, a04 <uart0_irq+0x48>
     9f0:	f893 3036 	ldrb.w	r3, [r3, #54]	; 0x36
     9f4:	b12b      	cbz	r3, a02 <uart0_irq+0x46>
     9f6:	2100      	movs	r1, #0
     9f8:	4a08      	ldr	r2, [pc, #32]	; (a1c <uart0_irq+0x60>)
     9fa:	6813      	ldr	r3, [r2, #0]
     9fc:	4798      	blx	r3
     9fe:	bd08      	pop	{r3, pc}
     a00:	bd08      	pop	{r3, pc}
     a02:	bd08      	pop	{r3, pc}
     a04:	bd08      	pop	{r3, pc}
     a06:	4a04      	ldr	r2, [pc, #16]	; (a18 <uart0_irq+0x5c>)
     a08:	6810      	ldr	r0, [r2, #0]
     a0a:	2800      	cmp	r0, #0
     a0c:	d0f9      	beq.n	a02 <uart0_irq+0x46>
     a0e:	4619      	mov	r1, r3
     a10:	e7f2      	b.n	9f8 <uart0_irq+0x3c>
     a12:	bf00      	nop
     a14:	4000c000 	.word	0x4000c000
     a18:	10000704 	.word	0x10000704
     a1c:	10000700 	.word	0x10000700

00000a20 <uart3_irq>:
     a20:	b508      	push	{r3, lr}
     a22:	4a17      	ldr	r2, [pc, #92]	; (a80 <uart3_irq+0x60>)
     a24:	6893      	ldr	r3, [r2, #8]
     a26:	f3c3 0342 	ubfx	r3, r3, #1, #3
     a2a:	2b01      	cmp	r3, #1
     a2c:	d021      	beq.n	a72 <uart3_irq+0x52>
     a2e:	2b02      	cmp	r3, #2
     a30:	d11c      	bne.n	a6c <uart3_irq+0x4c>
     a32:	4b14      	ldr	r3, [pc, #80]	; (a84 <uart3_irq+0x64>)
     a34:	f8d3 10ac 	ldr.w	r1, [r3, #172]	; 0xac
     a38:	3101      	adds	r1, #1
     a3a:	d00b      	beq.n	a54 <uart3_irq+0x34>
     a3c:	f8d3 10b8 	ldr.w	r1, [r3, #184]	; 0xb8
     a40:	f8d3 00b0 	ldr.w	r0, [r3, #176]	; 0xb0
     a44:	6008      	str	r0, [r1, #0]
     a46:	f893 10de 	ldrb.w	r1, [r3, #222]	; 0xde
     a4a:	b919      	cbnz	r1, a54 <uart3_irq+0x34>
     a4c:	6851      	ldr	r1, [r2, #4]
     a4e:	f021 0101 	bic.w	r1, r1, #1
     a52:	6051      	str	r1, [r2, #4]
     a54:	f8d3 00a8 	ldr.w	r0, [r3, #168]	; 0xa8
     a58:	4b0a      	ldr	r3, [pc, #40]	; (a84 <uart3_irq+0x64>)
     a5a:	b148      	cbz	r0, a70 <uart3_irq+0x50>
     a5c:	f893 30de 	ldrb.w	r3, [r3, #222]	; 0xde
     a60:	b12b      	cbz	r3, a6e <uart3_irq+0x4e>
     a62:	2100      	movs	r1, #0
     a64:	4a08      	ldr	r2, [pc, #32]	; (a88 <uart3_irq+0x68>)
     a66:	6813      	ldr	r3, [r2, #0]
     a68:	4798      	blx	r3
     a6a:	bd08      	pop	{r3, pc}
     a6c:	bd08      	pop	{r3, pc}
     a6e:	bd08      	pop	{r3, pc}
     a70:	bd08      	pop	{r3, pc}
     a72:	4a04      	ldr	r2, [pc, #16]	; (a84 <uart3_irq+0x64>)
     a74:	f8d2 00a8 	ldr.w	r0, [r2, #168]	; 0xa8
     a78:	2800      	cmp	r0, #0
     a7a:	d0f8      	beq.n	a6e <uart3_irq+0x4e>
     a7c:	4619      	mov	r1, r3
     a7e:	e7f1      	b.n	a64 <uart3_irq+0x44>
     a80:	4009c000 	.word	0x4009c000
     a84:	10000704 	.word	0x10000704
     a88:	10000700 	.word	0x10000700

00000a8c <uart1_irq>:
     a8c:	b508      	push	{r3, lr}
     a8e:	4a15      	ldr	r2, [pc, #84]	; (ae4 <uart1_irq+0x58>)
     a90:	6893      	ldr	r3, [r2, #8]
     a92:	f3c3 0342 	ubfx	r3, r3, #1, #3
     a96:	2b01      	cmp	r3, #1
     a98:	d01d      	beq.n	ad6 <uart1_irq+0x4a>
     a9a:	2b02      	cmp	r3, #2
     a9c:	d118      	bne.n	ad0 <uart1_irq+0x44>
     a9e:	4b12      	ldr	r3, [pc, #72]	; (ae8 <uart1_irq+0x5c>)
     aa0:	6bd9      	ldr	r1, [r3, #60]	; 0x3c
     aa2:	3101      	adds	r1, #1
     aa4:	d009      	beq.n	aba <uart1_irq+0x2e>
     aa6:	6c99      	ldr	r1, [r3, #72]	; 0x48
     aa8:	6c18      	ldr	r0, [r3, #64]	; 0x40
     aaa:	6008      	str	r0, [r1, #0]
     aac:	f893 106e 	ldrb.w	r1, [r3, #110]	; 0x6e
     ab0:	b919      	cbnz	r1, aba <uart1_irq+0x2e>
     ab2:	6851      	ldr	r1, [r2, #4]
     ab4:	f021 0101 	bic.w	r1, r1, #1
     ab8:	6051      	str	r1, [r2, #4]
     aba:	6b98      	ldr	r0, [r3, #56]	; 0x38
     abc:	4b0a      	ldr	r3, [pc, #40]	; (ae8 <uart1_irq+0x5c>)
     abe:	b148      	cbz	r0, ad4 <uart1_irq+0x48>
     ac0:	f893 306e 	ldrb.w	r3, [r3, #110]	; 0x6e
     ac4:	b12b      	cbz	r3, ad2 <uart1_irq+0x46>
     ac6:	2100      	movs	r1, #0
     ac8:	4a08      	ldr	r2, [pc, #32]	; (aec <uart1_irq+0x60>)
     aca:	6813      	ldr	r3, [r2, #0]
     acc:	4798      	blx	r3
     ace:	bd08      	pop	{r3, pc}
     ad0:	bd08      	pop	{r3, pc}
     ad2:	bd08      	pop	{r3, pc}
     ad4:	bd08      	pop	{r3, pc}
     ad6:	4a04      	ldr	r2, [pc, #16]	; (ae8 <uart1_irq+0x5c>)
     ad8:	6b90      	ldr	r0, [r2, #56]	; 0x38
     ada:	2800      	cmp	r0, #0
     adc:	d0f9      	beq.n	ad2 <uart1_irq+0x46>
     ade:	4619      	mov	r1, r3
     ae0:	e7f2      	b.n	ac8 <uart1_irq+0x3c>
     ae2:	bf00      	nop
     ae4:	40010000 	.word	0x40010000
     ae8:	10000704 	.word	0x10000704
     aec:	10000700 	.word	0x10000700

00000af0 <serial_baud>:
     af0:	e92d 4ff0 	stmdb	sp!, {r4, r5, r6, r7, r8, r9, sl, fp, lr}
     af4:	6803      	ldr	r3, [r0, #0]
     af6:	4a88      	ldr	r2, [pc, #544]	; (d18 <Stack_Size+0x118>)
     af8:	b08d      	sub	sp, #52	; 0x34
     afa:	4293      	cmp	r3, r2
     afc:	9009      	str	r0, [sp, #36]	; 0x24
     afe:	468b      	mov	fp, r1
     b00:	f300 80f0 	bgt.w	ce4 <Stack_Size+0xe4>
     b04:	4a85      	ldr	r2, [pc, #532]	; (d1c <Stack_Size+0x11c>)
     b06:	4293      	cmp	r3, r2
     b08:	f000 80f7 	beq.w	cfa <Stack_Size+0xfa>
     b0c:	f340 80d7 	ble.w	cbe <Stack_Size+0xbe>
     b10:	4a83      	ldr	r2, [pc, #524]	; (d20 <Stack_Size+0x120>)
     b12:	4293      	cmp	r3, r2
     b14:	f000 809f 	beq.w	c56 <Stack_Size+0x56>
     b18:	f502 4280 	add.w	r2, r2, #16384	; 0x4000
     b1c:	4293      	cmp	r3, r2
     b1e:	d10c      	bne.n	b3a <serial_baud+0x4a>
     b20:	4a80      	ldr	r2, [pc, #512]	; (d24 <Stack_Size+0x124>)
     b22:	f8d2 11ac 	ldr.w	r1, [r2, #428]	; 0x1ac
     b26:	f421 2140 	bic.w	r1, r1, #786432	; 0xc0000
     b2a:	f8c2 11ac 	str.w	r1, [r2, #428]	; 0x1ac
     b2e:	f8d2 11ac 	ldr.w	r1, [r2, #428]	; 0x1ac
     b32:	f441 2180 	orr.w	r1, r1, #262144	; 0x40000
     b36:	f8c2 11ac 	str.w	r1, [r2, #428]	; 0x1ac
     b3a:	497b      	ldr	r1, [pc, #492]	; (d28 <Stack_Size+0x128>)
     b3c:	ea4f 120b 	mov.w	r2, fp, lsl #4
     b40:	6809      	ldr	r1, [r1, #0]
     b42:	9108      	str	r1, [sp, #32]
     b44:	9c08      	ldr	r4, [sp, #32]
     b46:	fbb1 f1f2 	udiv	r1, r1, r2
     b4a:	fb02 4211 	mls	r2, r2, r1, r4
     b4e:	b289      	uxth	r1, r1
     b50:	9104      	str	r1, [sp, #16]
     b52:	2a00      	cmp	r2, #0
     b54:	f000 80b1 	beq.w	cba <Stack_Size+0xba>
     b58:	0061      	lsls	r1, r4, #1
     b5a:	00a2      	lsls	r2, r4, #2
     b5c:	2301      	movs	r3, #1
     b5e:	9402      	str	r4, [sp, #8]
     b60:	2400      	movs	r4, #0
     b62:	910b      	str	r1, [sp, #44]	; 0x2c
     b64:	920a      	str	r2, [sp, #40]	; 0x28
     b66:	9301      	str	r3, [sp, #4]
     b68:	460f      	mov	r7, r1
     b6a:	9203      	str	r2, [sp, #12]
     b6c:	9306      	str	r3, [sp, #24]
     b6e:	f8cd b01c 	str.w	fp, [sp, #28]
     b72:	465e      	mov	r6, fp
     b74:	9405      	str	r4, [sp, #20]
     b76:	f8dd a01c 	ldr.w	sl, [sp, #28]
     b7a:	9901      	ldr	r1, [sp, #4]
     b7c:	f04f 0800 	mov.w	r8, #0
     b80:	46d1      	mov	r9, sl
     b82:	b2cd      	uxtb	r5, r1
     b84:	46da      	mov	sl, fp
     b86:	46c3      	mov	fp, r8
     b88:	2f00      	cmp	r7, #0
     b8a:	db79      	blt.n	c80 <Stack_Size+0x80>
     b8c:	9903      	ldr	r1, [sp, #12]
     b8e:	f8dd e004 	ldr.w	lr, [sp, #4]
     b92:	fbb1 f4f9 	udiv	r4, r1, r9
     b96:	0964      	lsrs	r4, r4, #5
     b98:	3401      	adds	r4, #1
     b9a:	f3c4 044f 	ubfx	r4, r4, #1, #16
     b9e:	44de      	add	lr, fp
     ba0:	2c00      	cmp	r4, #0
     ba2:	d166      	bne.n	c72 <Stack_Size+0x72>
     ba4:	2401      	movs	r4, #1
     ba6:	f1b8 0f00 	cmp.w	r8, #0
     baa:	d167      	bne.n	c7c <Stack_Size+0x7c>
     bac:	fb04 f00e 	mul.w	r0, r4, lr
     bb0:	9a02      	ldr	r2, [sp, #8]
     bb2:	00c0      	lsls	r0, r0, #3
     bb4:	fbb2 f0f0 	udiv	r0, r2, r0
     bb8:	3001      	adds	r0, #1
     bba:	ebca 0050 	rsb	r0, sl, r0, lsr #1
     bbe:	f000 ff3c 	bl	1a3a <abs>
     bc2:	42b0      	cmp	r0, r6
     bc4:	da06      	bge.n	bd4 <serial_baud+0xe4>
     bc6:	4550      	cmp	r0, sl
     bc8:	d064      	beq.n	c94 <Stack_Size+0x94>
     bca:	4606      	mov	r6, r0
     bcc:	f8cd 8014 	str.w	r8, [sp, #20]
     bd0:	9404      	str	r4, [sp, #16]
     bd2:	9506      	str	r5, [sp, #24]
     bd4:	f10b 0b01 	add.w	fp, fp, #1
     bd8:	fa5f f88b 	uxtb.w	r8, fp
     bdc:	4545      	cmp	r5, r8
     bde:	44d1      	add	r9, sl
     be0:	d8d2      	bhi.n	b88 <serial_baud+0x98>
     be2:	9c01      	ldr	r4, [sp, #4]
     be4:	46d3      	mov	fp, sl
     be6:	2c0f      	cmp	r4, #15
     be8:	f04f 0300 	mov.w	r3, #0
     bec:	d05d      	beq.n	caa <Stack_Size+0xaa>
     bee:	9a02      	ldr	r2, [sp, #8]
     bf0:	9908      	ldr	r1, [sp, #32]
     bf2:	9c01      	ldr	r4, [sp, #4]
     bf4:	440a      	add	r2, r1
     bf6:	990b      	ldr	r1, [sp, #44]	; 0x2c
     bf8:	3401      	adds	r4, #1
     bfa:	9202      	str	r2, [sp, #8]
     bfc:	9401      	str	r4, [sp, #4]
     bfe:	9a03      	ldr	r2, [sp, #12]
     c00:	440f      	add	r7, r1
     c02:	9c0a      	ldr	r4, [sp, #40]	; 0x28
     c04:	9907      	ldr	r1, [sp, #28]
     c06:	4422      	add	r2, r4
     c08:	4459      	add	r1, fp
     c0a:	9203      	str	r2, [sp, #12]
     c0c:	9107      	str	r1, [sp, #28]
     c0e:	2b00      	cmp	r3, #0
     c10:	d0b1      	beq.n	b76 <serial_baud+0x86>
     c12:	9b06      	ldr	r3, [sp, #24]
     c14:	9a05      	ldr	r2, [sp, #20]
     c16:	9c09      	ldr	r4, [sp, #36]	; 0x24
     c18:	ea42 1003 	orr.w	r0, r2, r3, lsl #4
     c1c:	6823      	ldr	r3, [r4, #0]
     c1e:	b2c0      	uxtb	r0, r0
     c20:	7b19      	ldrb	r1, [r3, #12]
     c22:	9c04      	ldr	r4, [sp, #16]
     c24:	f041 0180 	orr.w	r1, r1, #128	; 0x80
     c28:	f3c4 2207 	ubfx	r2, r4, #8, #8
     c2c:	9c09      	ldr	r4, [sp, #36]	; 0x24
     c2e:	7319      	strb	r1, [r3, #12]
     c30:	6823      	ldr	r3, [r4, #0]
     c32:	9904      	ldr	r1, [sp, #16]
     c34:	711a      	strb	r2, [r3, #4]
     c36:	6823      	ldr	r3, [r4, #0]
     c38:	fa5f fb81 	uxtb.w	fp, r1
     c3c:	f883 b000 	strb.w	fp, [r3]
     c40:	6823      	ldr	r3, [r4, #0]
     c42:	f883 0028 	strb.w	r0, [r3, #40]	; 0x28
     c46:	6823      	ldr	r3, [r4, #0]
     c48:	7b1a      	ldrb	r2, [r3, #12]
     c4a:	f002 027f 	and.w	r2, r2, #127	; 0x7f
     c4e:	731a      	strb	r2, [r3, #12]
     c50:	b00d      	add	sp, #52	; 0x34
     c52:	e8bd 8ff0 	ldmia.w	sp!, {r4, r5, r6, r7, r8, r9, sl, fp, pc}
     c56:	4a33      	ldr	r2, [pc, #204]	; (d24 <Stack_Size+0x124>)
     c58:	f8d2 11ac 	ldr.w	r1, [r2, #428]	; 0x1ac
     c5c:	f421 3140 	bic.w	r1, r1, #196608	; 0x30000
     c60:	f8c2 11ac 	str.w	r1, [r2, #428]	; 0x1ac
     c64:	f8d2 11ac 	ldr.w	r1, [r2, #428]	; 0x1ac
     c68:	f441 3180 	orr.w	r1, r1, #65536	; 0x10000
     c6c:	f8c2 11ac 	str.w	r1, [r2, #428]	; 0x1ac
     c70:	e763      	b.n	b3a <serial_baud+0x4a>
     c72:	f1b8 0f00 	cmp.w	r8, #0
     c76:	d099      	beq.n	bac <serial_baud+0xbc>
     c78:	2c01      	cmp	r4, #1
     c7a:	d897      	bhi.n	bac <serial_baud+0xbc>
     c7c:	2402      	movs	r4, #2
     c7e:	e795      	b.n	bac <serial_baud+0xbc>
     c80:	fbb7 f4f9 	udiv	r4, r7, r9
     c84:	0924      	lsrs	r4, r4, #4
     c86:	f8dd e004 	ldr.w	lr, [sp, #4]
     c8a:	3401      	adds	r4, #1
     c8c:	f3c4 044f 	ubfx	r4, r4, #1, #16
     c90:	44de      	add	lr, fp
     c92:	e785      	b.n	ba0 <serial_baud+0xb0>
     c94:	9404      	str	r4, [sp, #16]
     c96:	9c01      	ldr	r4, [sp, #4]
     c98:	46d3      	mov	fp, sl
     c9a:	2c0f      	cmp	r4, #15
     c9c:	9506      	str	r5, [sp, #24]
     c9e:	f8cd 8014 	str.w	r8, [sp, #20]
     ca2:	4656      	mov	r6, sl
     ca4:	f04f 0301 	mov.w	r3, #1
     ca8:	d1a1      	bne.n	bee <serial_baud+0xfe>
     caa:	9905      	ldr	r1, [sp, #20]
     cac:	9a06      	ldr	r2, [sp, #24]
     cae:	9c09      	ldr	r4, [sp, #36]	; 0x24
     cb0:	ea41 1002 	orr.w	r0, r1, r2, lsl #4
     cb4:	b2c0      	uxtb	r0, r0
     cb6:	6823      	ldr	r3, [r4, #0]
     cb8:	e7b2      	b.n	c20 <Stack_Size+0x20>
     cba:	2010      	movs	r0, #16
     cbc:	e7b0      	b.n	c20 <Stack_Size+0x20>
     cbe:	f5a2 4280 	sub.w	r2, r2, #16384	; 0x4000
     cc2:	4293      	cmp	r3, r2
     cc4:	f47f af39 	bne.w	b3a <serial_baud+0x4a>
     cc8:	4a16      	ldr	r2, [pc, #88]	; (d24 <Stack_Size+0x124>)
     cca:	f8d2 11a8 	ldr.w	r1, [r2, #424]	; 0x1a8
     cce:	f021 01c0 	bic.w	r1, r1, #192	; 0xc0
     cd2:	f8c2 11a8 	str.w	r1, [r2, #424]	; 0x1a8
     cd6:	f8d2 11a8 	ldr.w	r1, [r2, #424]	; 0x1a8
     cda:	f041 0140 	orr.w	r1, r1, #64	; 0x40
     cde:	f8c2 11a8 	str.w	r1, [r2, #424]	; 0x1a8
     ce2:	e72a      	b.n	b3a <serial_baud+0x4a>
     ce4:	229b      	movs	r2, #155	; 0x9b
     ce6:	4811      	ldr	r0, [pc, #68]	; (d2c <Stack_Size+0x12c>)
     ce8:	4911      	ldr	r1, [pc, #68]	; (d30 <Stack_Size+0x130>)
     cea:	f000 fb65 	bl	13b8 <mbed_assert_internal>
     cee:	9c09      	ldr	r4, [sp, #36]	; 0x24
     cf0:	4a0a      	ldr	r2, [pc, #40]	; (d1c <Stack_Size+0x11c>)
     cf2:	6823      	ldr	r3, [r4, #0]
     cf4:	4293      	cmp	r3, r2
     cf6:	f47f af09 	bne.w	b0c <serial_baud+0x1c>
     cfa:	4a0a      	ldr	r2, [pc, #40]	; (d24 <Stack_Size+0x124>)
     cfc:	f8d2 11a8 	ldr.w	r1, [r2, #424]	; 0x1a8
     d00:	f421 7140 	bic.w	r1, r1, #768	; 0x300
     d04:	f8c2 11a8 	str.w	r1, [r2, #424]	; 0x1a8
     d08:	f8d2 11a8 	ldr.w	r1, [r2, #424]	; 0x1a8
     d0c:	f441 7180 	orr.w	r1, r1, #256	; 0x100
     d10:	f8c2 11a8 	str.w	r1, [r2, #424]	; 0x1a8
     d14:	e711      	b.n	b3a <serial_baud+0x4a>
     d16:	bf00      	nop
     d18:	4009c000 	.word	0x4009c000
     d1c:	40010000 	.word	0x40010000
     d20:	40098000 	.word	0x40098000
     d24:	400fc000 	.word	0x400fc000
     d28:	100000cc 	.word	0x100000cc
     d2c:	00007678 	.word	0x00007678
     d30:	00007694 	.word	0x00007694

00000d34 <serial_format>:
     d34:	b5f8      	push	{r3, r4, r5, r6, r7, lr}
     d36:	1e5d      	subs	r5, r3, #1
     d38:	2d01      	cmp	r5, #1
     d3a:	4607      	mov	r7, r0
     d3c:	460c      	mov	r4, r1
     d3e:	4616      	mov	r6, r2
     d40:	d904      	bls.n	d4c <serial_format+0x18>
     d42:	4815      	ldr	r0, [pc, #84]	; (d98 <serial_format+0x64>)
     d44:	4915      	ldr	r1, [pc, #84]	; (d9c <serial_format+0x68>)
     d46:	22fb      	movs	r2, #251	; 0xfb
     d48:	f000 fb36 	bl	13b8 <mbed_assert_internal>
     d4c:	3c05      	subs	r4, #5
     d4e:	2c03      	cmp	r4, #3
     d50:	d81c      	bhi.n	d8c <serial_format+0x58>
     d52:	2e04      	cmp	r6, #4
     d54:	d814      	bhi.n	d80 <serial_format+0x4c>
     d56:	3e01      	subs	r6, #1
     d58:	b2f6      	uxtb	r6, r6
     d5a:	2e03      	cmp	r6, #3
     d5c:	d80d      	bhi.n	d7a <serial_format+0x46>
     d5e:	4b10      	ldr	r3, [pc, #64]	; (da0 <serial_format+0x6c>)
     d60:	2208      	movs	r2, #8
     d62:	f853 3026 	ldr.w	r3, [r3, r6, lsl #2]
     d66:	011b      	lsls	r3, r3, #4
     d68:	b2db      	uxtb	r3, r3
     d6a:	ea44 0485 	orr.w	r4, r4, r5, lsl #2
     d6e:	4314      	orrs	r4, r2
     d70:	4323      	orrs	r3, r4
     d72:	683a      	ldr	r2, [r7, #0]
     d74:	b2db      	uxtb	r3, r3
     d76:	7313      	strb	r3, [r2, #12]
     d78:	bdf8      	pop	{r3, r4, r5, r6, r7, pc}
     d7a:	2300      	movs	r3, #0
     d7c:	461a      	mov	r2, r3
     d7e:	e7f4      	b.n	d6a <serial_format+0x36>
     d80:	4808      	ldr	r0, [pc, #32]	; (da4 <serial_format+0x70>)
     d82:	4906      	ldr	r1, [pc, #24]	; (d9c <serial_format+0x68>)
     d84:	22fe      	movs	r2, #254	; 0xfe
     d86:	f000 fb17 	bl	13b8 <mbed_assert_internal>
     d8a:	e7e4      	b.n	d56 <serial_format+0x22>
     d8c:	4806      	ldr	r0, [pc, #24]	; (da8 <serial_format+0x74>)
     d8e:	4903      	ldr	r1, [pc, #12]	; (d9c <serial_format+0x68>)
     d90:	22fc      	movs	r2, #252	; 0xfc
     d92:	f000 fb11 	bl	13b8 <mbed_assert_internal>
     d96:	e7dc      	b.n	d52 <serial_format+0x1e>
     d98:	000076fc 	.word	0x000076fc
     d9c:	00007694 	.word	0x00007694
     da0:	000075fc 	.word	0x000075fc
     da4:	00007748 	.word	0x00007748
     da8:	00007724 	.word	0x00007724

00000dac <serial_irq_handler>:
     dac:	6843      	ldr	r3, [r0, #4]
     dae:	b410      	push	{r4}
     db0:	4804      	ldr	r0, [pc, #16]	; (dc4 <serial_irq_handler+0x18>)
     db2:	4c05      	ldr	r4, [pc, #20]	; (dc8 <serial_irq_handler+0x1c>)
     db4:	ebc3 03c3 	rsb	r3, r3, r3, lsl #3
     db8:	f844 2033 	str.w	r2, [r4, r3, lsl #3]
     dbc:	6001      	str	r1, [r0, #0]
     dbe:	f85d 4b04 	ldr.w	r4, [sp], #4
     dc2:	4770      	bx	lr
     dc4:	10000700 	.word	0x10000700
     dc8:	10000704 	.word	0x10000704

00000dcc <serial_getc>:
     dcc:	b500      	push	{lr}
     dce:	6802      	ldr	r2, [r0, #0]
     dd0:	7d13      	ldrb	r3, [r2, #20]
     dd2:	07db      	lsls	r3, r3, #31
     dd4:	d5fc      	bpl.n	dd0 <serial_getc+0x4>
     dd6:	6843      	ldr	r3, [r0, #4]
     dd8:	4909      	ldr	r1, [pc, #36]	; (e00 <serial_getc+0x34>)
     dda:	ebc3 03c3 	rsb	r3, r3, r3, lsl #3
     dde:	eb01 03c3 	add.w	r3, r1, r3, lsl #3
     de2:	6859      	ldr	r1, [r3, #4]
     de4:	7810      	ldrb	r0, [r2, #0]
     de6:	3101      	adds	r1, #1
     de8:	b2c0      	uxtb	r0, r0
     dea:	d007      	beq.n	dfc <serial_getc+0x30>
     dec:	6959      	ldr	r1, [r3, #20]
     dee:	3304      	adds	r3, #4
     df0:	685b      	ldr	r3, [r3, #4]
     df2:	600b      	str	r3, [r1, #0]
     df4:	6853      	ldr	r3, [r2, #4]
     df6:	f043 0301 	orr.w	r3, r3, #1
     dfa:	6053      	str	r3, [r2, #4]
     dfc:	f85d fb04 	ldr.w	pc, [sp], #4
     e00:	10000704 	.word	0x10000704

00000e04 <serial_writable>:
     e04:	b538      	push	{r3, r4, r5, lr}
     e06:	6843      	ldr	r3, [r0, #4]
     e08:	4a18      	ldr	r2, [pc, #96]	; (e6c <serial_writable+0x68>)
     e0a:	ebc3 03c3 	rsb	r3, r3, r3, lsl #3
     e0e:	00db      	lsls	r3, r3, #3
     e10:	18d1      	adds	r1, r2, r3
     e12:	4604      	mov	r4, r0
     e14:	69c8      	ldr	r0, [r1, #28]
     e16:	3001      	adds	r0, #1
     e18:	d011      	beq.n	e3e <serial_writable+0x3a>
     e1a:	3318      	adds	r3, #24
     e1c:	441a      	add	r2, r3
     e1e:	6853      	ldr	r3, [r2, #4]
     e20:	1d15      	adds	r5, r2, #4
     e22:	3301      	adds	r3, #1
     e24:	d016      	beq.n	e54 <serial_writable+0x50>
     e26:	696a      	ldr	r2, [r5, #20]
     e28:	686b      	ldr	r3, [r5, #4]
     e2a:	6812      	ldr	r2, [r2, #0]
     e2c:	421a      	tst	r2, r3
     e2e:	d104      	bne.n	e3a <serial_writable+0x36>
     e30:	6823      	ldr	r3, [r4, #0]
     e32:	7d18      	ldrb	r0, [r3, #20]
     e34:	f3c0 1080 	ubfx	r0, r0, #6, #1
     e38:	bd38      	pop	{r3, r4, r5, pc}
     e3a:	2000      	movs	r0, #0
     e3c:	bd38      	pop	{r3, r4, r5, pc}
     e3e:	6823      	ldr	r3, [r4, #0]
     e40:	7d1b      	ldrb	r3, [r3, #20]
     e42:	069b      	lsls	r3, r3, #26
     e44:	d40c      	bmi.n	e60 <serial_writable+0x5c>
     e46:	f891 0034 	ldrb.w	r0, [r1, #52]	; 0x34
     e4a:	280f      	cmp	r0, #15
     e4c:	bf8c      	ite	hi
     e4e:	2000      	movhi	r0, #0
     e50:	2001      	movls	r0, #1
     e52:	bd38      	pop	{r3, r4, r5, pc}
     e54:	4806      	ldr	r0, [pc, #24]	; (e70 <serial_writable+0x6c>)
     e56:	4907      	ldr	r1, [pc, #28]	; (e74 <serial_writable+0x70>)
     e58:	222c      	movs	r2, #44	; 0x2c
     e5a:	f000 faad 	bl	13b8 <mbed_assert_internal>
     e5e:	e7e2      	b.n	e26 <serial_writable+0x22>
     e60:	2300      	movs	r3, #0
     e62:	f881 3034 	strb.w	r3, [r1, #52]	; 0x34
     e66:	2001      	movs	r0, #1
     e68:	bd38      	pop	{r3, r4, r5, pc}
     e6a:	bf00      	nop
     e6c:	10000704 	.word	0x10000704
     e70:	00007500 	.word	0x00007500
     e74:	000077cc 	.word	0x000077cc

00000e78 <serial_putc>:
     e78:	b538      	push	{r3, r4, r5, lr}
     e7a:	4604      	mov	r4, r0
     e7c:	460d      	mov	r5, r1
     e7e:	4620      	mov	r0, r4
     e80:	f7ff ffc0 	bl	e04 <serial_writable>
     e84:	2800      	cmp	r0, #0
     e86:	d0fa      	beq.n	e7e <serial_putc+0x6>
     e88:	6823      	ldr	r3, [r4, #0]
     e8a:	b2ed      	uxtb	r5, r5
     e8c:	701d      	strb	r5, [r3, #0]
     e8e:	6862      	ldr	r2, [r4, #4]
     e90:	4b05      	ldr	r3, [pc, #20]	; (ea8 <serial_putc+0x30>)
     e92:	ebc2 02c2 	rsb	r2, r2, r2, lsl #3
     e96:	eb03 03c2 	add.w	r3, r3, r2, lsl #3
     e9a:	f893 2034 	ldrb.w	r2, [r3, #52]	; 0x34
     e9e:	3201      	adds	r2, #1
     ea0:	f883 2034 	strb.w	r2, [r3, #52]	; 0x34
     ea4:	bd38      	pop	{r3, r4, r5, pc}
     ea6:	bf00      	nop
     ea8:	10000704 	.word	0x10000704

00000eac <serial_set_flow_control>:
     eac:	e92d 4ff0 	stmdb	sp!, {r4, r5, r6, r7, r8, r9, sl, fp, lr}
     eb0:	4604      	mov	r4, r0
     eb2:	4d45      	ldr	r5, [pc, #276]	; (fc8 <serial_set_flow_control+0x11c>)
     eb4:	6800      	ldr	r0, [r0, #0]
     eb6:	b083      	sub	sp, #12
     eb8:	42a8      	cmp	r0, r5
     eba:	460e      	mov	r6, r1
     ebc:	4690      	mov	r8, r2
     ebe:	4699      	mov	r9, r3
     ec0:	d043      	beq.n	f4a <serial_set_flow_control+0x9e>
     ec2:	6865      	ldr	r5, [r4, #4]
     ec4:	2300      	movs	r3, #0
     ec6:	9301      	str	r3, [sp, #4]
     ec8:	462a      	mov	r2, r5
     eca:	f8df a108 	ldr.w	sl, [pc, #264]	; fd4 <serial_set_flow_control+0x128>
     ece:	00ef      	lsls	r7, r5, #3
     ed0:	ebc2 02c2 	rsb	r2, r2, r2, lsl #3
     ed4:	1b78      	subs	r0, r7, r5
     ed6:	f04f 0e00 	mov.w	lr, #0
     eda:	eb0a 00c0 	add.w	r0, sl, r0, lsl #3
     ede:	eb0a 0cc2 	add.w	ip, sl, r2, lsl #3
     ee2:	f04f 33ff 	mov.w	r3, #4294967295
     ee6:	61c3      	str	r3, [r0, #28]
     ee8:	6043      	str	r3, [r0, #4]
     eea:	4671      	mov	r1, lr
     eec:	4672      	mov	r2, lr
     eee:	4620      	mov	r0, r4
     ef0:	f88c e035 	strb.w	lr, [ip, #53]	; 0x35
     ef4:	f7ff fcfc 	bl	8f0 <serial_irq_set_internal>
     ef8:	b916      	cbnz	r6, f00 <serial_set_flow_control+0x54>
     efa:	b003      	add	sp, #12
     efc:	e8bd 8ff0 	ldmia.w	sp!, {r4, r5, r6, r7, r8, r9, sl, fp, pc}
     f00:	4932      	ldr	r1, [pc, #200]	; (fcc <serial_set_flow_control+0x120>)
     f02:	4640      	mov	r0, r8
     f04:	f000 fb12 	bl	152c <pinmap_find_peripheral>
     f08:	4931      	ldr	r1, [pc, #196]	; (fd0 <serial_set_flow_control+0x124>)
     f0a:	4683      	mov	fp, r0
     f0c:	4648      	mov	r0, r9
     f0e:	f000 fb0d 	bl	152c <pinmap_find_peripheral>
     f12:	1eb2      	subs	r2, r6, #2
     f14:	2a01      	cmp	r2, #1
     f16:	d938      	bls.n	f8a <serial_set_flow_control+0xde>
     f18:	2e01      	cmp	r6, #1
     f1a:	d1ee      	bne.n	efa <serial_set_flow_control+0x4e>
     f1c:	f1b8 3fff 	cmp.w	r8, #4294967295
     f20:	d0eb      	beq.n	efa <serial_set_flow_control+0x4e>
     f22:	4929      	ldr	r1, [pc, #164]	; (fc8 <serial_set_flow_control+0x11c>)
     f24:	6822      	ldr	r2, [r4, #0]
     f26:	2007      	movs	r0, #7
     f28:	458b      	cmp	fp, r1
     f2a:	7210      	strb	r0, [r2, #8]
     f2c:	d115      	bne.n	f5a <serial_set_flow_control+0xae>
     f2e:	9b01      	ldr	r3, [sp, #4]
     f30:	b19b      	cbz	r3, f5a <serial_set_flow_control+0xae>
     f32:	7c1b      	ldrb	r3, [r3, #16]
     f34:	9a01      	ldr	r2, [sp, #4]
     f36:	4925      	ldr	r1, [pc, #148]	; (fcc <serial_set_flow_control+0x120>)
     f38:	f043 0340 	orr.w	r3, r3, #64	; 0x40
     f3c:	4640      	mov	r0, r8
     f3e:	7413      	strb	r3, [r2, #16]
     f40:	b003      	add	sp, #12
     f42:	e8bd 4ff0 	ldmia.w	sp!, {r4, r5, r6, r7, r8, r9, sl, fp, lr}
     f46:	f000 babf 	b.w	14c8 <pinmap_pinout>
     f4a:	7c03      	ldrb	r3, [r0, #16]
     f4c:	6865      	ldr	r5, [r4, #4]
     f4e:	f003 033f 	and.w	r3, r3, #63	; 0x3f
     f52:	7403      	strb	r3, [r0, #16]
     f54:	6862      	ldr	r2, [r4, #4]
     f56:	9001      	str	r0, [sp, #4]
     f58:	e7b7      	b.n	eca <serial_set_flow_control+0x1e>
     f5a:	1b7d      	subs	r5, r7, r5
     f5c:	eb0a 00c5 	add.w	r0, sl, r5, lsl #3
     f60:	4641      	mov	r1, r8
     f62:	3004      	adds	r0, #4
     f64:	2200      	movs	r2, #0
     f66:	f000 fa85 	bl	1474 <gpio_init_out_ex>
     f6a:	6862      	ldr	r2, [r4, #4]
     f6c:	2501      	movs	r5, #1
     f6e:	ebc2 02c2 	rsb	r2, r2, r2, lsl #3
     f72:	eb0a 03c2 	add.w	r3, sl, r2, lsl #3
     f76:	4620      	mov	r0, r4
     f78:	462a      	mov	r2, r5
     f7a:	2100      	movs	r1, #0
     f7c:	f883 5035 	strb.w	r5, [r3, #53]	; 0x35
     f80:	b003      	add	sp, #12
     f82:	e8bd 4ff0 	ldmia.w	sp!, {r4, r5, r6, r7, r8, r9, sl, fp, lr}
     f86:	f7ff bcb3 	b.w	8f0 <serial_irq_set_internal>
     f8a:	f1b9 3fff 	cmp.w	r9, #4294967295
     f8e:	d009      	beq.n	fa4 <serial_set_flow_control+0xf8>
     f90:	4a0d      	ldr	r2, [pc, #52]	; (fc8 <serial_set_flow_control+0x11c>)
     f92:	4290      	cmp	r0, r2
     f94:	d00c      	beq.n	fb0 <serial_set_flow_control+0x104>
     f96:	1b78      	subs	r0, r7, r5
     f98:	eb0a 00c0 	add.w	r0, sl, r0, lsl #3
     f9c:	4649      	mov	r1, r9
     f9e:	301c      	adds	r0, #28
     fa0:	f000 fa34 	bl	140c <gpio_init_in>
     fa4:	2e03      	cmp	r6, #3
     fa6:	d1a8      	bne.n	efa <serial_set_flow_control+0x4e>
     fa8:	f1b8 3fff 	cmp.w	r8, #4294967295
     fac:	d1b9      	bne.n	f22 <serial_set_flow_control+0x76>
     fae:	e7a4      	b.n	efa <serial_set_flow_control+0x4e>
     fb0:	9b01      	ldr	r3, [sp, #4]
     fb2:	2b00      	cmp	r3, #0
     fb4:	d0ef      	beq.n	f96 <serial_set_flow_control+0xea>
     fb6:	7c1a      	ldrb	r2, [r3, #16]
     fb8:	4648      	mov	r0, r9
     fba:	f042 0280 	orr.w	r2, r2, #128	; 0x80
     fbe:	741a      	strb	r2, [r3, #16]
     fc0:	4903      	ldr	r1, [pc, #12]	; (fd0 <serial_set_flow_control+0x124>)
     fc2:	f000 fa81 	bl	14c8 <pinmap_pinout>
     fc6:	e7ed      	b.n	fa4 <serial_set_flow_control+0xf8>
     fc8:	40010000 	.word	0x40010000
     fcc:	000075d8 	.word	0x000075d8
     fd0:	000078b4 	.word	0x000078b4
     fd4:	10000704 	.word	0x10000704

00000fd8 <serial_init>:
     fd8:	e92d 47f0 	stmdb	sp!, {r4, r5, r6, r7, r8, r9, sl, lr}
     fdc:	460f      	mov	r7, r1
     fde:	4605      	mov	r5, r0
     fe0:	4608      	mov	r0, r1
     fe2:	4961      	ldr	r1, [pc, #388]	; (1168 <serial_init+0x190>)
     fe4:	4616      	mov	r6, r2
     fe6:	f000 faaf 	bl	1548 <pinmap_peripheral>
     fea:	4960      	ldr	r1, [pc, #384]	; (116c <serial_init+0x194>)
     fec:	4604      	mov	r4, r0
     fee:	4630      	mov	r0, r6
     ff0:	f000 faaa 	bl	1548 <pinmap_peripheral>
     ff4:	4601      	mov	r1, r0
     ff6:	4620      	mov	r0, r4
     ff8:	f000 fa86 	bl	1508 <pinmap_merge>
     ffc:	1c41      	adds	r1, r0, #1
     ffe:	4604      	mov	r4, r0
    1000:	f000 80ab 	beq.w	115a <serial_init+0x182>
    1004:	4b5a      	ldr	r3, [pc, #360]	; (1170 <serial_init+0x198>)
    1006:	6028      	str	r0, [r5, #0]
    1008:	4298      	cmp	r0, r3
    100a:	f000 8083 	beq.w	1114 <serial_init+0x13c>
    100e:	d953      	bls.n	10b8 <serial_init+0xe0>
    1010:	4b58      	ldr	r3, [pc, #352]	; (1174 <serial_init+0x19c>)
    1012:	4298      	cmp	r0, r3
    1014:	d076      	beq.n	1104 <serial_init+0x12c>
    1016:	f503 4380 	add.w	r3, r3, #16384	; 0x4000
    101a:	4298      	cmp	r0, r3
    101c:	d106      	bne.n	102c <serial_init+0x54>
    101e:	4b56      	ldr	r3, [pc, #344]	; (1178 <serial_init+0x1a0>)
    1020:	f8d3 20c4 	ldr.w	r2, [r3, #196]	; 0xc4
    1024:	f042 7200 	orr.w	r2, r2, #33554432	; 0x2000000
    1028:	f8c3 20c4 	str.w	r2, [r3, #196]	; 0xc4
    102c:	f04f 0901 	mov.w	r9, #1
    1030:	f884 9008 	strb.w	r9, [r4, #8]
    1034:	682b      	ldr	r3, [r5, #0]
    1036:	f04f 0800 	mov.w	r8, #0
    103a:	f8c3 8004 	str.w	r8, [r3, #4]
    103e:	4628      	mov	r0, r5
    1040:	f44f 5116 	mov.w	r1, #9600	; 0x2580
    1044:	f7ff fd54 	bl	af0 <serial_baud>
    1048:	4642      	mov	r2, r8
    104a:	464b      	mov	r3, r9
    104c:	4628      	mov	r0, r5
    104e:	2108      	movs	r1, #8
    1050:	f7ff fe70 	bl	d34 <serial_format>
    1054:	4638      	mov	r0, r7
    1056:	4944      	ldr	r1, [pc, #272]	; (1168 <serial_init+0x190>)
    1058:	f000 fa36 	bl	14c8 <pinmap_pinout>
    105c:	4630      	mov	r0, r6
    105e:	4943      	ldr	r1, [pc, #268]	; (116c <serial_init+0x194>)
    1060:	f000 fa32 	bl	14c8 <pinmap_pinout>
    1064:	1c7a      	adds	r2, r7, #1
    1066:	d003      	beq.n	1070 <serial_init+0x98>
    1068:	4638      	mov	r0, r7
    106a:	4641      	mov	r1, r8
    106c:	f000 fb2a 	bl	16c4 <pin_mode>
    1070:	1c73      	adds	r3, r6, #1
    1072:	d003      	beq.n	107c <serial_init+0xa4>
    1074:	4630      	mov	r0, r6
    1076:	2100      	movs	r1, #0
    1078:	f000 fb24 	bl	16c4 <pin_mode>
    107c:	4b3c      	ldr	r3, [pc, #240]	; (1170 <serial_init+0x198>)
    107e:	429c      	cmp	r4, r3
    1080:	d050      	beq.n	1124 <serial_init+0x14c>
    1082:	d925      	bls.n	10d0 <serial_init+0xf8>
    1084:	4b3b      	ldr	r3, [pc, #236]	; (1174 <serial_init+0x19c>)
    1086:	429c      	cmp	r4, r3
    1088:	d064      	beq.n	1154 <serial_init+0x17c>
    108a:	f503 4380 	add.w	r3, r3, #16384	; 0x4000
    108e:	429c      	cmp	r4, r3
    1090:	d14b      	bne.n	112a <serial_init+0x152>
    1092:	2303      	movs	r3, #3
    1094:	606b      	str	r3, [r5, #4]
    1096:	4939      	ldr	r1, [pc, #228]	; (117c <serial_init+0x1a4>)
    1098:	ebc3 03c3 	rsb	r3, r3, r3, lsl #3
    109c:	f04f 34ff 	mov.w	r4, #4294967295
    10a0:	4628      	mov	r0, r5
    10a2:	eb01 05c3 	add.w	r5, r1, r3, lsl #3
    10a6:	4622      	mov	r2, r4
    10a8:	4623      	mov	r3, r4
    10aa:	606c      	str	r4, [r5, #4]
    10ac:	61ec      	str	r4, [r5, #28]
    10ae:	2100      	movs	r1, #0
    10b0:	e8bd 47f0 	ldmia.w	sp!, {r4, r5, r6, r7, r8, r9, sl, lr}
    10b4:	f7ff befa 	b.w	eac <serial_set_flow_control>
    10b8:	f5a3 4380 	sub.w	r3, r3, #16384	; 0x4000
    10bc:	4298      	cmp	r0, r3
    10be:	d1b5      	bne.n	102c <serial_init+0x54>
    10c0:	4b2d      	ldr	r3, [pc, #180]	; (1178 <serial_init+0x1a0>)
    10c2:	f8d3 20c4 	ldr.w	r2, [r3, #196]	; 0xc4
    10c6:	f042 0208 	orr.w	r2, r2, #8
    10ca:	f8c3 20c4 	str.w	r2, [r3, #196]	; 0xc4
    10ce:	e7ad      	b.n	102c <serial_init+0x54>
    10d0:	f5a3 4380 	sub.w	r3, r3, #16384	; 0x4000
    10d4:	429c      	cmp	r4, r3
    10d6:	d128      	bne.n	112a <serial_init+0x152>
    10d8:	4e28      	ldr	r6, [pc, #160]	; (117c <serial_init+0x1a4>)
    10da:	f04f 34ff 	mov.w	r4, #4294967295
    10de:	2100      	movs	r1, #0
    10e0:	6069      	str	r1, [r5, #4]
    10e2:	4622      	mov	r2, r4
    10e4:	4623      	mov	r3, r4
    10e6:	4628      	mov	r0, r5
    10e8:	6074      	str	r4, [r6, #4]
    10ea:	61f4      	str	r4, [r6, #28]
    10ec:	f7ff fede 	bl	eac <serial_set_flow_control>
    10f0:	4b23      	ldr	r3, [pc, #140]	; (1180 <serial_init+0x1a8>)
    10f2:	2401      	movs	r4, #1
    10f4:	4629      	mov	r1, r5
    10f6:	601c      	str	r4, [r3, #0]
    10f8:	4822      	ldr	r0, [pc, #136]	; (1184 <serial_init+0x1ac>)
    10fa:	2208      	movs	r2, #8
    10fc:	e8bd 47f0 	ldmia.w	sp!, {r4, r5, r6, r7, r8, r9, sl, lr}
    1100:	f001 b826 	b.w	2150 <memcpy>
    1104:	4b1c      	ldr	r3, [pc, #112]	; (1178 <serial_init+0x1a0>)
    1106:	f8d3 20c4 	ldr.w	r2, [r3, #196]	; 0xc4
    110a:	f042 7280 	orr.w	r2, r2, #16777216	; 0x1000000
    110e:	f8c3 20c4 	str.w	r2, [r3, #196]	; 0xc4
    1112:	e78b      	b.n	102c <serial_init+0x54>
    1114:	4b18      	ldr	r3, [pc, #96]	; (1178 <serial_init+0x1a0>)
    1116:	f8d3 20c4 	ldr.w	r2, [r3, #196]	; 0xc4
    111a:	f042 0210 	orr.w	r2, r2, #16
    111e:	f8c3 20c4 	str.w	r2, [r3, #196]	; 0xc4
    1122:	e783      	b.n	102c <serial_init+0x54>
    1124:	2301      	movs	r3, #1
    1126:	606b      	str	r3, [r5, #4]
    1128:	e7b5      	b.n	1096 <serial_init+0xbe>
    112a:	686b      	ldr	r3, [r5, #4]
    112c:	4913      	ldr	r1, [pc, #76]	; (117c <serial_init+0x1a4>)
    112e:	ebc3 03c3 	rsb	r3, r3, r3, lsl #3
    1132:	f04f 36ff 	mov.w	r6, #4294967295
    1136:	eb01 07c3 	add.w	r7, r1, r3, lsl #3
    113a:	4632      	mov	r2, r6
    113c:	4633      	mov	r3, r6
    113e:	4628      	mov	r0, r5
    1140:	2100      	movs	r1, #0
    1142:	607e      	str	r6, [r7, #4]
    1144:	61fe      	str	r6, [r7, #28]
    1146:	f7ff feb1 	bl	eac <serial_set_flow_control>
    114a:	4b0f      	ldr	r3, [pc, #60]	; (1188 <serial_init+0x1b0>)
    114c:	429c      	cmp	r4, r3
    114e:	d0cf      	beq.n	10f0 <serial_init+0x118>
    1150:	e8bd 87f0 	ldmia.w	sp!, {r4, r5, r6, r7, r8, r9, sl, pc}
    1154:	2302      	movs	r3, #2
    1156:	606b      	str	r3, [r5, #4]
    1158:	e79d      	b.n	1096 <serial_init+0xbe>
    115a:	480c      	ldr	r0, [pc, #48]	; (118c <serial_init+0x1b4>)
    115c:	490c      	ldr	r1, [pc, #48]	; (1190 <serial_init+0x1b8>)
    115e:	225c      	movs	r2, #92	; 0x5c
    1160:	f000 f92a 	bl	13b8 <mbed_assert_internal>
    1164:	602c      	str	r4, [r5, #0]
    1166:	e761      	b.n	102c <serial_init+0x54>
    1168:	00007848 	.word	0x00007848
    116c:	0000760c 	.word	0x0000760c
    1170:	40010000 	.word	0x40010000
    1174:	40098000 	.word	0x40098000
    1178:	400fc000 	.word	0x400fc000
    117c:	10000704 	.word	0x10000704
    1180:	100006fc 	.word	0x100006fc
    1184:	100007fc 	.word	0x100007fc
    1188:	4000c000 	.word	0x4000c000
    118c:	00007838 	.word	0x00007838
    1190:	00007694 	.word	0x00007694

00001194 <_ZN4mbed8FilePathC1EPKc>:
    1194:	b538      	push	{r3, r4, r5, lr}
    1196:	2300      	movs	r3, #0
    1198:	6003      	str	r3, [r0, #0]
    119a:	6043      	str	r3, [r0, #4]
    119c:	780a      	ldrb	r2, [r1, #0]
    119e:	4604      	mov	r4, r0
    11a0:	2a2f      	cmp	r2, #47	; 0x2f
    11a2:	d001      	beq.n	11a8 <_ZN4mbed8FilePathC1EPKc+0x14>
    11a4:	4620      	mov	r0, r4
    11a6:	bd38      	pop	{r3, r4, r5, pc}
    11a8:	784a      	ldrb	r2, [r1, #1]
    11aa:	2a00      	cmp	r2, #0
    11ac:	d0fa      	beq.n	11a4 <_ZN4mbed8FilePathC1EPKc+0x10>
    11ae:	1c48      	adds	r0, r1, #1
    11b0:	6020      	str	r0, [r4, #0]
    11b2:	784a      	ldrb	r2, [r1, #1]
    11b4:	2a2f      	cmp	r2, #47	; 0x2f
    11b6:	d014      	beq.n	11e2 <_ZN4mbed8FilePathC1EPKc+0x4e>
    11b8:	b1b2      	cbz	r2, 11e8 <_ZN4mbed8FilePathC1EPKc+0x54>
    11ba:	1c8d      	adds	r5, r1, #2
    11bc:	4619      	mov	r1, r3
    11be:	e000      	b.n	11c2 <_ZN4mbed8FilePathC1EPKc+0x2e>
    11c0:	b152      	cbz	r2, 11d8 <_ZN4mbed8FilePathC1EPKc+0x44>
    11c2:	6025      	str	r5, [r4, #0]
    11c4:	782a      	ldrb	r2, [r5, #0]
    11c6:	462b      	mov	r3, r5
    11c8:	2a2f      	cmp	r2, #47	; 0x2f
    11ca:	f101 0101 	add.w	r1, r1, #1
    11ce:	f105 0501 	add.w	r5, r5, #1
    11d2:	d1f5      	bne.n	11c0 <_ZN4mbed8FilePathC1EPKc+0x2c>
    11d4:	3301      	adds	r3, #1
    11d6:	6023      	str	r3, [r4, #0]
    11d8:	f000 fb54 	bl	1884 <_ZN4mbed8FileBase6lookupEPKcj>
    11dc:	6060      	str	r0, [r4, #4]
    11de:	4620      	mov	r0, r4
    11e0:	bd38      	pop	{r3, r4, r5, pc}
    11e2:	4619      	mov	r1, r3
    11e4:	4603      	mov	r3, r0
    11e6:	e7f5      	b.n	11d4 <_ZN4mbed8FilePathC1EPKc+0x40>
    11e8:	4611      	mov	r1, r2
    11ea:	e7f5      	b.n	11d8 <_ZN4mbed8FilePathC1EPKc+0x44>

000011ec <_ZN4mbed8FilePath8fileNameEv>:
    11ec:	6800      	ldr	r0, [r0, #0]
    11ee:	4770      	bx	lr

000011f0 <_ZN4mbed8FilePath10fileSystemEv>:
    11f0:	b510      	push	{r4, lr}
    11f2:	4604      	mov	r4, r0
    11f4:	6840      	ldr	r0, [r0, #4]
    11f6:	b128      	cbz	r0, 1204 <_ZN4mbed8FilePath10fileSystemEv+0x14>
    11f8:	f000 fb62 	bl	18c0 <_ZN4mbed8FileBase11getPathTypeEv>
    11fc:	2801      	cmp	r0, #1
    11fe:	d101      	bne.n	1204 <_ZN4mbed8FilePath10fileSystemEv+0x14>
    1200:	6860      	ldr	r0, [r4, #4]
    1202:	bd10      	pop	{r4, pc}
    1204:	2000      	movs	r0, #0
    1206:	bd10      	pop	{r4, pc}

00001208 <_ZN4mbed8FilePath6isFileEv>:
    1208:	6840      	ldr	r0, [r0, #4]
    120a:	b508      	push	{r3, lr}
    120c:	b128      	cbz	r0, 121a <_ZN4mbed8FilePath6isFileEv+0x12>
    120e:	f000 fb57 	bl	18c0 <_ZN4mbed8FileBase11getPathTypeEv>
    1212:	f1d0 0001 	rsbs	r0, r0, #1
    1216:	bf38      	it	cc
    1218:	2000      	movcc	r0, #0
    121a:	bd08      	pop	{r3, pc}

0000121c <_ZN4mbed8FilePath4fileEv>:
    121c:	b510      	push	{r4, lr}
    121e:	4604      	mov	r4, r0
    1220:	6840      	ldr	r0, [r0, #4]
    1222:	b130      	cbz	r0, 1232 <_ZN4mbed8FilePath4fileEv+0x16>
    1224:	f000 fb4c 	bl	18c0 <_ZN4mbed8FileBase11getPathTypeEv>
    1228:	b918      	cbnz	r0, 1232 <_ZN4mbed8FilePath4fileEv+0x16>
    122a:	6860      	ldr	r0, [r4, #4]
    122c:	b108      	cbz	r0, 1232 <_ZN4mbed8FilePath4fileEv+0x16>
    122e:	3804      	subs	r0, #4
    1230:	bd10      	pop	{r4, pc}
    1232:	2000      	movs	r0, #0
    1234:	bd10      	pop	{r4, pc}
    1236:	bf00      	nop

00001238 <_ZN4mbed8FilePath6existsEv>:
    1238:	6840      	ldr	r0, [r0, #4]
    123a:	3000      	adds	r0, #0
    123c:	bf18      	it	ne
    123e:	2001      	movne	r0, #1
    1240:	4770      	bx	lr
    1242:	bf00      	nop

00001244 <_ZN4mbed6Stream5closeEv>:
    1244:	2000      	movs	r0, #0
    1246:	4770      	bx	lr

00001248 <_ZN4mbed6Stream5writeEPKvj>:
    1248:	b5f8      	push	{r3, r4, r5, r6, r7, lr}
    124a:	188e      	adds	r6, r1, r2
    124c:	42b1      	cmp	r1, r6
    124e:	460f      	mov	r7, r1
    1250:	4605      	mov	r5, r0
    1252:	d00f      	beq.n	1274 <_ZN4mbed6Stream5writeEPKvj+0x2c>
    1254:	460c      	mov	r4, r1
    1256:	e001      	b.n	125c <_ZN4mbed6Stream5writeEPKvj+0x14>
    1258:	42a6      	cmp	r6, r4
    125a:	d009      	beq.n	1270 <_ZN4mbed6Stream5writeEPKvj+0x28>
    125c:	682b      	ldr	r3, [r5, #0]
    125e:	4628      	mov	r0, r5
    1260:	6a5b      	ldr	r3, [r3, #36]	; 0x24
    1262:	f814 1b01 	ldrb.w	r1, [r4], #1
    1266:	4798      	blx	r3
    1268:	3001      	adds	r0, #1
    126a:	d1f5      	bne.n	1258 <_ZN4mbed6Stream5writeEPKvj+0x10>
    126c:	1be0      	subs	r0, r4, r7
    126e:	bdf8      	pop	{r3, r4, r5, r6, r7, pc}
    1270:	1bf0      	subs	r0, r6, r7
    1272:	bdf8      	pop	{r3, r4, r5, r6, r7, pc}
    1274:	2000      	movs	r0, #0
    1276:	bdf8      	pop	{r3, r4, r5, r6, r7, pc}

00001278 <_ZN4mbed6Stream4readEPvj>:
    1278:	b5f8      	push	{r3, r4, r5, r6, r7, lr}
    127a:	188e      	adds	r6, r1, r2
    127c:	42b1      	cmp	r1, r6
    127e:	460f      	mov	r7, r1
    1280:	4605      	mov	r5, r0
    1282:	d00f      	beq.n	12a4 <_ZN4mbed6Stream4readEPvj+0x2c>
    1284:	460c      	mov	r4, r1
    1286:	e003      	b.n	1290 <_ZN4mbed6Stream4readEPvj+0x18>
    1288:	f804 0b01 	strb.w	r0, [r4], #1
    128c:	42a6      	cmp	r6, r4
    128e:	d007      	beq.n	12a0 <_ZN4mbed6Stream4readEPvj+0x28>
    1290:	682b      	ldr	r3, [r5, #0]
    1292:	4628      	mov	r0, r5
    1294:	6a9b      	ldr	r3, [r3, #40]	; 0x28
    1296:	4798      	blx	r3
    1298:	1c43      	adds	r3, r0, #1
    129a:	d1f5      	bne.n	1288 <_ZN4mbed6Stream4readEPvj+0x10>
    129c:	1be0      	subs	r0, r4, r7
    129e:	bdf8      	pop	{r3, r4, r5, r6, r7, pc}
    12a0:	1bf0      	subs	r0, r6, r7
    12a2:	bdf8      	pop	{r3, r4, r5, r6, r7, pc}
    12a4:	2000      	movs	r0, #0
    12a6:	bdf8      	pop	{r3, r4, r5, r6, r7, pc}

000012a8 <_ZN4mbed6Stream5lseekEli>:
    12a8:	2000      	movs	r0, #0
    12aa:	4770      	bx	lr

000012ac <_ZN4mbed6Stream6isattyEv>:
    12ac:	2000      	movs	r0, #0
    12ae:	4770      	bx	lr

000012b0 <_ZN4mbed6Stream5fsyncEv>:
    12b0:	2000      	movs	r0, #0
    12b2:	4770      	bx	lr

000012b4 <_ZN4mbed6Stream4flenEv>:
    12b4:	2000      	movs	r0, #0
    12b6:	4770      	bx	lr

000012b8 <_ZN4mbed6StreamD1Ev>:
    12b8:	b510      	push	{r4, lr}
    12ba:	4b07      	ldr	r3, [pc, #28]	; (12d8 <_ZN4mbed6StreamD1Ev+0x20>)
    12bc:	4604      	mov	r4, r0
    12be:	f103 0208 	add.w	r2, r3, #8
    12c2:	333c      	adds	r3, #60	; 0x3c
    12c4:	e880 000c 	stmia.w	r0, {r2, r3}
    12c8:	6940      	ldr	r0, [r0, #20]
    12ca:	f000 fc35 	bl	1b38 <fclose>
    12ce:	4620      	mov	r0, r4
    12d0:	f000 faf8 	bl	18c4 <_ZN4mbed8FileLikeD1Ev>
    12d4:	4620      	mov	r0, r4
    12d6:	bd10      	pop	{r4, pc}
    12d8:	000078d8 	.word	0x000078d8

000012dc <_ZThn4_N4mbed6StreamD1Ev>:
    12dc:	f1a0 0004 	sub.w	r0, r0, #4
    12e0:	f7ff bfea 	b.w	12b8 <_ZN4mbed6StreamD1Ev>

000012e4 <_ZN4mbed6StreamD0Ev>:
    12e4:	b510      	push	{r4, lr}
    12e6:	4604      	mov	r4, r0
    12e8:	f7ff ffe6 	bl	12b8 <_ZN4mbed6StreamD1Ev>
    12ec:	4620      	mov	r0, r4
    12ee:	f000 fb9d 	bl	1a2c <_ZdlPv>
    12f2:	4620      	mov	r0, r4
    12f4:	bd10      	pop	{r4, pc}
    12f6:	bf00      	nop

000012f8 <_ZThn4_N4mbed6StreamD0Ev>:
    12f8:	f1a0 0004 	sub.w	r0, r0, #4
    12fc:	f7ff bff2 	b.w	12e4 <_ZN4mbed6StreamD0Ev>

00001300 <_ZN4mbed6StreamC1EPKc>:
    1300:	b510      	push	{r4, lr}
    1302:	b084      	sub	sp, #16
    1304:	4604      	mov	r4, r0
    1306:	f000 fb0d 	bl	1924 <_ZN4mbed8FileLikeC1EPKc>
    130a:	4b0b      	ldr	r3, [pc, #44]	; (1338 <_ZN4mbed6StreamC1EPKc+0x38>)
    130c:	2200      	movs	r2, #0
    130e:	f103 0108 	add.w	r1, r3, #8
    1312:	333c      	adds	r3, #60	; 0x3c
    1314:	e884 000a 	stmia.w	r4, {r1, r3}
    1318:	6162      	str	r2, [r4, #20]
    131a:	a801      	add	r0, sp, #4
    131c:	4622      	mov	r2, r4
    131e:	4907      	ldr	r1, [pc, #28]	; (133c <_ZN4mbed6StreamC1EPKc+0x3c>)
    1320:	f002 f9ac 	bl	367c <siprintf>
    1324:	4906      	ldr	r1, [pc, #24]	; (1340 <_ZN4mbed6StreamC1EPKc+0x40>)
    1326:	a801      	add	r0, sp, #4
    1328:	f000 fdba 	bl	1ea0 <fopen>
    132c:	6160      	str	r0, [r4, #20]
    132e:	f7ff fa87 	bl	840 <_ZN4mbed26mbed_set_unbuffered_streamEP7__sFILE>
    1332:	4620      	mov	r0, r4
    1334:	b004      	add	sp, #16
    1336:	bd10      	pop	{r4, pc}
    1338:	000078d8 	.word	0x000078d8
    133c:	000075c8 	.word	0x000075c8
    1340:	00007920 	.word	0x00007920

00001344 <_ZN4mbed6Stream6printfEPKcz>:
    1344:	b40e      	push	{r1, r2, r3}
    1346:	b530      	push	{r4, r5, lr}
    1348:	b082      	sub	sp, #8
    134a:	ab05      	add	r3, sp, #20
    134c:	f853 5b04 	ldr.w	r5, [r3], #4
    1350:	4604      	mov	r4, r0
    1352:	6940      	ldr	r0, [r0, #20]
    1354:	9301      	str	r3, [sp, #4]
    1356:	f000 fca5 	bl	1ca4 <fflush>
    135a:	4629      	mov	r1, r5
    135c:	6960      	ldr	r0, [r4, #20]
    135e:	9a01      	ldr	r2, [sp, #4]
    1360:	f001 f8d4 	bl	250c <vfiprintf>
    1364:	b002      	add	sp, #8
    1366:	e8bd 4030 	ldmia.w	sp!, {r4, r5, lr}
    136a:	b003      	add	sp, #12
    136c:	4770      	bx	lr
    136e:	bf00      	nop

00001370 <_ZN4mbed6Serial5_getcEv>:
    1370:	f000 bb1a 	b.w	19a8 <_ZN4mbed10SerialBase10_base_getcEv>

00001374 <_ZThn72_N4mbed6Serial5_getcEv>:
    1374:	f1a0 0048 	sub.w	r0, r0, #72	; 0x48
    1378:	f7ff bffa 	b.w	1370 <_ZN4mbed6Serial5_getcEv>

0000137c <_ZN4mbed6Serial5_putcEi>:
    137c:	f000 bb18 	b.w	19b0 <_ZN4mbed10SerialBase10_base_putcEi>

00001380 <_ZThn72_N4mbed6Serial5_putcEi>:
    1380:	f1a0 0048 	sub.w	r0, r0, #72	; 0x48
    1384:	f7ff bffa 	b.w	137c <_ZN4mbed6Serial5_putcEi>

00001388 <_ZN4mbed6SerialC1E7PinNameS1_PKc>:
    1388:	b538      	push	{r3, r4, r5, lr}
    138a:	4604      	mov	r4, r0
    138c:	461d      	mov	r5, r3
    138e:	f000 fae5 	bl	195c <_ZN4mbed10SerialBaseC1E7PinNameS1_>
    1392:	4629      	mov	r1, r5
    1394:	f104 0048 	add.w	r0, r4, #72	; 0x48
    1398:	f7ff ffb2 	bl	1300 <_ZN4mbed6StreamC1EPKc>
    139c:	4b05      	ldr	r3, [pc, #20]	; (13b4 <_ZN4mbed6SerialC1E7PinNameS1_PKc+0x2c>)
    139e:	4620      	mov	r0, r4
    13a0:	f103 0108 	add.w	r1, r3, #8
    13a4:	f103 0220 	add.w	r2, r3, #32
    13a8:	3354      	adds	r3, #84	; 0x54
    13aa:	6021      	str	r1, [r4, #0]
    13ac:	64a2      	str	r2, [r4, #72]	; 0x48
    13ae:	64e3      	str	r3, [r4, #76]	; 0x4c
    13b0:	bd38      	pop	{r3, r4, r5, pc}
    13b2:	bf00      	nop
    13b4:	00007938 	.word	0x00007938

000013b8 <mbed_assert_internal>:
    13b8:	b510      	push	{r4, lr}
    13ba:	4b08      	ldr	r3, [pc, #32]	; (13dc <mbed_assert_internal+0x24>)
    13bc:	4604      	mov	r4, r0
    13be:	6818      	ldr	r0, [r3, #0]
    13c0:	b082      	sub	sp, #8
    13c2:	460b      	mov	r3, r1
    13c4:	68c0      	ldr	r0, [r0, #12]
    13c6:	4906      	ldr	r1, [pc, #24]	; (13e0 <mbed_assert_internal+0x28>)
    13c8:	9200      	str	r2, [sp, #0]
    13ca:	4622      	mov	r2, r4
    13cc:	f000 fd72 	bl	1eb4 <fiprintf>
    13d0:	b002      	add	sp, #8
    13d2:	e8bd 4010 	ldmia.w	sp!, {r4, lr}
    13d6:	f7ff b801 	b.w	3dc <mbed_die>
    13da:	bf00      	nop
    13dc:	10000134 	.word	0x10000134
    13e0:	00007998 	.word	0x00007998

000013e4 <error>:
    13e4:	b40f      	push	{r0, r1, r2, r3}
    13e6:	b500      	push	{lr}
    13e8:	4a06      	ldr	r2, [pc, #24]	; (1404 <error+0x20>)
    13ea:	b083      	sub	sp, #12
    13ec:	ab04      	add	r3, sp, #16
    13ee:	6812      	ldr	r2, [r2, #0]
    13f0:	f853 1b04 	ldr.w	r1, [r3], #4
    13f4:	68d0      	ldr	r0, [r2, #12]
    13f6:	461a      	mov	r2, r3
    13f8:	9301      	str	r3, [sp, #4]
    13fa:	f001 f887 	bl	250c <vfiprintf>
    13fe:	2001      	movs	r0, #1
    1400:	f000 fb34 	bl	1a6c <exit>
    1404:	10000134 	.word	0x10000134

00001408 <mbed_interface_connected>:
    1408:	f000 b8c4 	b.w	1594 <semihost_connected>

0000140c <gpio_init_in>:
    140c:	b538      	push	{r3, r4, r5, lr}
    140e:	460d      	mov	r5, r1
    1410:	4604      	mov	r4, r0
    1412:	f000 f8f1 	bl	15f8 <gpio_init>
    1416:	3501      	adds	r5, #1
    1418:	d009      	beq.n	142e <gpio_init_in+0x22>
    141a:	4620      	mov	r0, r4
    141c:	2100      	movs	r1, #0
    141e:	f000 f907 	bl	1630 <gpio_dir>
    1422:	4620      	mov	r0, r4
    1424:	2103      	movs	r1, #3
    1426:	e8bd 4038 	ldmia.w	sp!, {r3, r4, r5, lr}
    142a:	f000 b8fd 	b.w	1628 <gpio_mode>
    142e:	bd38      	pop	{r3, r4, r5, pc}

00001430 <gpio_init_out>:
    1430:	b538      	push	{r3, r4, r5, lr}
    1432:	460d      	mov	r5, r1
    1434:	4604      	mov	r4, r0
    1436:	f000 f8df 	bl	15f8 <gpio_init>
    143a:	3501      	adds	r5, #1
    143c:	d00f      	beq.n	145e <gpio_init_out+0x2e>
    143e:	6823      	ldr	r3, [r4, #0]
    1440:	3301      	adds	r3, #1
    1442:	d00d      	beq.n	1460 <gpio_init_out+0x30>
    1444:	6923      	ldr	r3, [r4, #16]
    1446:	6862      	ldr	r2, [r4, #4]
    1448:	4620      	mov	r0, r4
    144a:	601a      	str	r2, [r3, #0]
    144c:	2101      	movs	r1, #1
    144e:	f000 f8ef 	bl	1630 <gpio_dir>
    1452:	4620      	mov	r0, r4
    1454:	2102      	movs	r1, #2
    1456:	e8bd 4038 	ldmia.w	sp!, {r3, r4, r5, lr}
    145a:	f000 b8e5 	b.w	1628 <gpio_mode>
    145e:	bd38      	pop	{r3, r4, r5, pc}
    1460:	4802      	ldr	r0, [pc, #8]	; (146c <gpio_init_out+0x3c>)
    1462:	4903      	ldr	r1, [pc, #12]	; (1470 <gpio_init_out+0x40>)
    1464:	2224      	movs	r2, #36	; 0x24
    1466:	f7ff ffa7 	bl	13b8 <mbed_assert_internal>
    146a:	e7eb      	b.n	1444 <gpio_init_out+0x14>
    146c:	00007500 	.word	0x00007500
    1470:	00007518 	.word	0x00007518

00001474 <gpio_init_out_ex>:
    1474:	b570      	push	{r4, r5, r6, lr}
    1476:	460d      	mov	r5, r1
    1478:	4616      	mov	r6, r2
    147a:	4604      	mov	r4, r0
    147c:	f000 f8bc 	bl	15f8 <gpio_init>
    1480:	3501      	adds	r5, #1
    1482:	d014      	beq.n	14ae <gpio_init_out_ex+0x3a>
    1484:	6823      	ldr	r3, [r4, #0]
    1486:	3301      	adds	r3, #1
    1488:	d012      	beq.n	14b0 <gpio_init_out_ex+0x3c>
    148a:	b966      	cbnz	r6, 14a6 <gpio_init_out_ex+0x32>
    148c:	6923      	ldr	r3, [r4, #16]
    148e:	6862      	ldr	r2, [r4, #4]
    1490:	601a      	str	r2, [r3, #0]
    1492:	4620      	mov	r0, r4
    1494:	2101      	movs	r1, #1
    1496:	f000 f8cb 	bl	1630 <gpio_dir>
    149a:	4620      	mov	r0, r4
    149c:	2102      	movs	r1, #2
    149e:	e8bd 4070 	ldmia.w	sp!, {r4, r5, r6, lr}
    14a2:	f000 b8c1 	b.w	1628 <gpio_mode>
    14a6:	68e3      	ldr	r3, [r4, #12]
    14a8:	6862      	ldr	r2, [r4, #4]
    14aa:	601a      	str	r2, [r3, #0]
    14ac:	e7f1      	b.n	1492 <gpio_init_out_ex+0x1e>
    14ae:	bd70      	pop	{r4, r5, r6, pc}
    14b0:	4803      	ldr	r0, [pc, #12]	; (14c0 <gpio_init_out_ex+0x4c>)
    14b2:	4904      	ldr	r1, [pc, #16]	; (14c4 <gpio_init_out_ex+0x50>)
    14b4:	2224      	movs	r2, #36	; 0x24
    14b6:	f7ff ff7f 	bl	13b8 <mbed_assert_internal>
    14ba:	2e00      	cmp	r6, #0
    14bc:	d0e6      	beq.n	148c <gpio_init_out_ex+0x18>
    14be:	e7f2      	b.n	14a6 <gpio_init_out_ex+0x32>
    14c0:	00007500 	.word	0x00007500
    14c4:	00007518 	.word	0x00007518

000014c8 <pinmap_pinout>:
    14c8:	1c43      	adds	r3, r0, #1
    14ca:	b510      	push	{r4, lr}
    14cc:	4604      	mov	r4, r0
    14ce:	d018      	beq.n	1502 <pinmap_pinout+0x3a>
    14d0:	680b      	ldr	r3, [r1, #0]
    14d2:	1c58      	adds	r0, r3, #1
    14d4:	d104      	bne.n	14e0 <pinmap_pinout+0x18>
    14d6:	e00f      	b.n	14f8 <pinmap_pinout+0x30>
    14d8:	f851 3f0c 	ldr.w	r3, [r1, #12]!
    14dc:	1c5a      	adds	r2, r3, #1
    14de:	d00b      	beq.n	14f8 <pinmap_pinout+0x30>
    14e0:	429c      	cmp	r4, r3
    14e2:	d1f9      	bne.n	14d8 <pinmap_pinout+0x10>
    14e4:	4620      	mov	r0, r4
    14e6:	6889      	ldr	r1, [r1, #8]
    14e8:	f000 f8c4 	bl	1674 <pin_function>
    14ec:	4620      	mov	r0, r4
    14ee:	2102      	movs	r1, #2
    14f0:	e8bd 4010 	ldmia.w	sp!, {r4, lr}
    14f4:	f000 b8e6 	b.w	16c4 <pin_mode>
    14f8:	4802      	ldr	r0, [pc, #8]	; (1504 <pinmap_pinout+0x3c>)
    14fa:	e8bd 4010 	ldmia.w	sp!, {r4, lr}
    14fe:	f7ff bf71 	b.w	13e4 <error>
    1502:	bd10      	pop	{r4, pc}
    1504:	000079cc 	.word	0x000079cc

00001508 <pinmap_merge>:
    1508:	4288      	cmp	r0, r1
    150a:	b508      	push	{r3, lr}
    150c:	d00a      	beq.n	1524 <pinmap_merge+0x1c>
    150e:	1c43      	adds	r3, r0, #1
    1510:	d007      	beq.n	1522 <pinmap_merge+0x1a>
    1512:	3101      	adds	r1, #1
    1514:	d006      	beq.n	1524 <pinmap_merge+0x1c>
    1516:	4804      	ldr	r0, [pc, #16]	; (1528 <pinmap_merge+0x20>)
    1518:	f7ff ff64 	bl	13e4 <error>
    151c:	f04f 30ff 	mov.w	r0, #4294967295
    1520:	bd08      	pop	{r3, pc}
    1522:	4608      	mov	r0, r1
    1524:	bd08      	pop	{r3, pc}
    1526:	bf00      	nop
    1528:	000079e0 	.word	0x000079e0

0000152c <pinmap_find_peripheral>:
    152c:	680b      	ldr	r3, [r1, #0]
    152e:	1c5a      	adds	r2, r3, #1
    1530:	d104      	bne.n	153c <pinmap_find_peripheral+0x10>
    1532:	e007      	b.n	1544 <pinmap_find_peripheral+0x18>
    1534:	f851 3f0c 	ldr.w	r3, [r1, #12]!
    1538:	1c5a      	adds	r2, r3, #1
    153a:	d003      	beq.n	1544 <pinmap_find_peripheral+0x18>
    153c:	4283      	cmp	r3, r0
    153e:	d1f9      	bne.n	1534 <pinmap_find_peripheral+0x8>
    1540:	6848      	ldr	r0, [r1, #4]
    1542:	4770      	bx	lr
    1544:	4618      	mov	r0, r3
    1546:	4770      	bx	lr

00001548 <pinmap_peripheral>:
    1548:	b508      	push	{r3, lr}
    154a:	1c43      	adds	r3, r0, #1
    154c:	d00c      	beq.n	1568 <pinmap_peripheral+0x20>
    154e:	680b      	ldr	r3, [r1, #0]
    1550:	1c5a      	adds	r2, r3, #1
    1552:	d104      	bne.n	155e <pinmap_peripheral+0x16>
    1554:	e009      	b.n	156a <pinmap_peripheral+0x22>
    1556:	f851 3f0c 	ldr.w	r3, [r1, #12]!
    155a:	1c5a      	adds	r2, r3, #1
    155c:	d005      	beq.n	156a <pinmap_peripheral+0x22>
    155e:	4298      	cmp	r0, r3
    1560:	d1f9      	bne.n	1556 <pinmap_peripheral+0xe>
    1562:	6848      	ldr	r0, [r1, #4]
    1564:	1c41      	adds	r1, r0, #1
    1566:	d000      	beq.n	156a <pinmap_peripheral+0x22>
    1568:	bd08      	pop	{r3, pc}
    156a:	4803      	ldr	r0, [pc, #12]	; (1578 <pinmap_peripheral+0x30>)
    156c:	f7ff ff3a 	bl	13e4 <error>
    1570:	f04f 30ff 	mov.w	r0, #4294967295
    1574:	e7f8      	b.n	1568 <pinmap_peripheral+0x20>
    1576:	bf00      	nop
    1578:	000079f4 	.word	0x000079f4

0000157c <semihost_exit>:
    157c:	b530      	push	{r4, r5, lr}
    157e:	b085      	sub	sp, #20
    1580:	2418      	movs	r4, #24
    1582:	466d      	mov	r5, sp
    1584:	4620      	mov	r0, r4
    1586:	4629      	mov	r1, r5
    1588:	beab      	bkpt	0x00ab
    158a:	4604      	mov	r4, r0
    158c:	4620      	mov	r0, r4
    158e:	b005      	add	sp, #20
    1590:	bd30      	pop	{r4, r5, pc}
    1592:	bf00      	nop

00001594 <semihost_connected>:
    1594:	4b02      	ldr	r3, [pc, #8]	; (15a0 <semihost_connected+0xc>)
    1596:	6818      	ldr	r0, [r3, #0]
    1598:	f000 0001 	and.w	r0, r0, #1
    159c:	4770      	bx	lr
    159e:	bf00      	nop
    15a0:	e000edf0 	.word	0xe000edf0

000015a4 <wait_us>:
    15a4:	b538      	push	{r3, r4, r5, lr}
    15a6:	4605      	mov	r5, r0
    15a8:	f000 f8fc 	bl	17a4 <us_ticker_read>
    15ac:	4604      	mov	r4, r0
    15ae:	f000 f8f9 	bl	17a4 <us_ticker_read>
    15b2:	1b00      	subs	r0, r0, r4
    15b4:	42a8      	cmp	r0, r5
    15b6:	d3fa      	bcc.n	15ae <wait_us+0xa>
    15b8:	bd38      	pop	{r3, r4, r5, pc}
    15ba:	bf00      	nop

000015bc <wait_ms>:
    15bc:	f44f 737a 	mov.w	r3, #1000	; 0x3e8
    15c0:	fb03 f000 	mul.w	r0, r3, r0
    15c4:	f7ff bfee 	b.w	15a4 <wait_us>

000015c8 <gpio_set>:
    15c8:	1c43      	adds	r3, r0, #1
    15ca:	b510      	push	{r4, lr}
    15cc:	4604      	mov	r4, r0
    15ce:	d008      	beq.n	15e2 <gpio_set+0x1a>
    15d0:	4620      	mov	r0, r4
    15d2:	2100      	movs	r1, #0
    15d4:	f000 f84e 	bl	1674 <pin_function>
    15d8:	f004 041f 	and.w	r4, r4, #31
    15dc:	2001      	movs	r0, #1
    15de:	40a0      	lsls	r0, r4
    15e0:	bd10      	pop	{r4, pc}
    15e2:	4803      	ldr	r0, [pc, #12]	; (15f0 <gpio_set+0x28>)
    15e4:	4903      	ldr	r1, [pc, #12]	; (15f4 <gpio_set+0x2c>)
    15e6:	2215      	movs	r2, #21
    15e8:	f7ff fee6 	bl	13b8 <mbed_assert_internal>
    15ec:	e7f0      	b.n	15d0 <gpio_set+0x8>
    15ee:	bf00      	nop
    15f0:	00007a34 	.word	0x00007a34
    15f4:	00007a48 	.word	0x00007a48

000015f8 <gpio_init>:
    15f8:	b538      	push	{r3, r4, r5, lr}
    15fa:	4604      	mov	r4, r0
    15fc:	1c4b      	adds	r3, r1, #1
    15fe:	460d      	mov	r5, r1
    1600:	6021      	str	r1, [r4, #0]
    1602:	d00f      	beq.n	1624 <gpio_init+0x2c>
    1604:	4608      	mov	r0, r1
    1606:	f7ff ffdf 	bl	15c8 <gpio_set>
    160a:	f025 051f 	bic.w	r5, r5, #31
    160e:	f105 0118 	add.w	r1, r5, #24
    1612:	f105 021c 	add.w	r2, r5, #28
    1616:	f105 0314 	add.w	r3, r5, #20
    161a:	6060      	str	r0, [r4, #4]
    161c:	60a5      	str	r5, [r4, #8]
    161e:	60e1      	str	r1, [r4, #12]
    1620:	6122      	str	r2, [r4, #16]
    1622:	6163      	str	r3, [r4, #20]
    1624:	bd38      	pop	{r3, r4, r5, pc}
    1626:	bf00      	nop

00001628 <gpio_mode>:
    1628:	6800      	ldr	r0, [r0, #0]
    162a:	f000 b84b 	b.w	16c4 <pin_mode>
    162e:	bf00      	nop

00001630 <gpio_dir>:
    1630:	b538      	push	{r3, r4, r5, lr}
    1632:	6803      	ldr	r3, [r0, #0]
    1634:	4604      	mov	r4, r0
    1636:	3301      	adds	r3, #1
    1638:	460d      	mov	r5, r1
    163a:	d010      	beq.n	165e <gpio_dir+0x2e>
    163c:	b145      	cbz	r5, 1650 <gpio_dir+0x20>
    163e:	2d01      	cmp	r5, #1
    1640:	d105      	bne.n	164e <gpio_dir+0x1e>
    1642:	68a3      	ldr	r3, [r4, #8]
    1644:	6862      	ldr	r2, [r4, #4]
    1646:	6819      	ldr	r1, [r3, #0]
    1648:	430a      	orrs	r2, r1
    164a:	601a      	str	r2, [r3, #0]
    164c:	bd38      	pop	{r3, r4, r5, pc}
    164e:	bd38      	pop	{r3, r4, r5, pc}
    1650:	68a3      	ldr	r3, [r4, #8]
    1652:	6861      	ldr	r1, [r4, #4]
    1654:	681a      	ldr	r2, [r3, #0]
    1656:	ea22 0201 	bic.w	r2, r2, r1
    165a:	601a      	str	r2, [r3, #0]
    165c:	bd38      	pop	{r3, r4, r5, pc}
    165e:	4803      	ldr	r0, [pc, #12]	; (166c <gpio_dir+0x3c>)
    1660:	4903      	ldr	r1, [pc, #12]	; (1670 <gpio_dir+0x40>)
    1662:	222c      	movs	r2, #44	; 0x2c
    1664:	f7ff fea8 	bl	13b8 <mbed_assert_internal>
    1668:	e7e8      	b.n	163c <gpio_dir+0xc>
    166a:	bf00      	nop
    166c:	00007500 	.word	0x00007500
    1670:	00007a48 	.word	0x00007a48

00001674 <pin_function>:
    1674:	b538      	push	{r3, r4, r5, lr}
    1676:	1c43      	adds	r3, r0, #1
    1678:	4604      	mov	r4, r0
    167a:	460d      	mov	r5, r1
    167c:	d017      	beq.n	16ae <pin_function+0x3a>
    167e:	f104 4060 	add.w	r0, r4, #3758096384	; 0xe0000000
    1682:	f5a0 201c 	sub.w	r0, r0, #638976	; 0x9c000
    1686:	f000 030f 	and.w	r3, r0, #15
    168a:	005b      	lsls	r3, r3, #1
    168c:	2203      	movs	r2, #3
    168e:	409a      	lsls	r2, r3
    1690:	409d      	lsls	r5, r3
    1692:	0903      	lsrs	r3, r0, #4
    1694:	009b      	lsls	r3, r3, #2
    1696:	f103 4380 	add.w	r3, r3, #1073741824	; 0x40000000
    169a:	f503 3330 	add.w	r3, r3, #180224	; 0x2c000
    169e:	6819      	ldr	r1, [r3, #0]
    16a0:	ea21 0202 	bic.w	r2, r1, r2
    16a4:	601a      	str	r2, [r3, #0]
    16a6:	681a      	ldr	r2, [r3, #0]
    16a8:	4315      	orrs	r5, r2
    16aa:	601d      	str	r5, [r3, #0]
    16ac:	bd38      	pop	{r3, r4, r5, pc}
    16ae:	4803      	ldr	r0, [pc, #12]	; (16bc <pin_function+0x48>)
    16b0:	4903      	ldr	r1, [pc, #12]	; (16c0 <pin_function+0x4c>)
    16b2:	2215      	movs	r2, #21
    16b4:	f7ff fe80 	bl	13b8 <mbed_assert_internal>
    16b8:	e7e1      	b.n	167e <pin_function+0xa>
    16ba:	bf00      	nop
    16bc:	00007a34 	.word	0x00007a34
    16c0:	00007ab0 	.word	0x00007ab0

000016c4 <pin_mode>:
    16c4:	b538      	push	{r3, r4, r5, lr}
    16c6:	1c43      	adds	r3, r0, #1
    16c8:	4604      	mov	r4, r0
    16ca:	460d      	mov	r5, r1
    16cc:	d02c      	beq.n	1728 <pin_mode+0x64>
    16ce:	f104 4060 	add.w	r0, r4, #3758096384	; 0xe0000000
    16d2:	f5a0 201c 	sub.w	r0, r0, #638976	; 0x9c000
    16d6:	f000 041f 	and.w	r4, r0, #31
    16da:	f3c5 0280 	ubfx	r2, r5, #2, #1
    16de:	fa02 f404 	lsl.w	r4, r2, r4
    16e2:	0943      	lsrs	r3, r0, #5
    16e4:	009b      	lsls	r3, r3, #2
    16e6:	f103 4380 	add.w	r3, r3, #1073741824	; 0x40000000
    16ea:	f503 3330 	add.w	r3, r3, #180224	; 0x2c000
    16ee:	6e99      	ldr	r1, [r3, #104]	; 0x68
    16f0:	ea21 0104 	bic.w	r1, r1, r4
    16f4:	6699      	str	r1, [r3, #104]	; 0x68
    16f6:	6e99      	ldr	r1, [r3, #104]	; 0x68
    16f8:	430c      	orrs	r4, r1
    16fa:	669c      	str	r4, [r3, #104]	; 0x68
    16fc:	b99a      	cbnz	r2, 1726 <pin_mode+0x62>
    16fe:	f000 030f 	and.w	r3, r0, #15
    1702:	005b      	lsls	r3, r3, #1
    1704:	2203      	movs	r2, #3
    1706:	409a      	lsls	r2, r3
    1708:	fa05 f303 	lsl.w	r3, r5, r3
    170c:	0900      	lsrs	r0, r0, #4
    170e:	0080      	lsls	r0, r0, #2
    1710:	f100 4080 	add.w	r0, r0, #1073741824	; 0x40000000
    1714:	f500 3030 	add.w	r0, r0, #180224	; 0x2c000
    1718:	6c01      	ldr	r1, [r0, #64]	; 0x40
    171a:	ea21 0202 	bic.w	r2, r1, r2
    171e:	6402      	str	r2, [r0, #64]	; 0x40
    1720:	6c02      	ldr	r2, [r0, #64]	; 0x40
    1722:	4313      	orrs	r3, r2
    1724:	6403      	str	r3, [r0, #64]	; 0x40
    1726:	bd38      	pop	{r3, r4, r5, pc}
    1728:	4802      	ldr	r0, [pc, #8]	; (1734 <pin_mode+0x70>)
    172a:	4903      	ldr	r1, [pc, #12]	; (1738 <pin_mode+0x74>)
    172c:	2220      	movs	r2, #32
    172e:	f7ff fe43 	bl	13b8 <mbed_assert_internal>
    1732:	e7cc      	b.n	16ce <pin_mode+0xa>
    1734:	00007a34 	.word	0x00007a34
    1738:	00007ab0 	.word	0x00007ab0

0000173c <us_ticker_init>:
    173c:	4a13      	ldr	r2, [pc, #76]	; (178c <us_ticker_init+0x50>)
    173e:	b538      	push	{r3, r4, r5, lr}
    1740:	6813      	ldr	r3, [r2, #0]
    1742:	bb0b      	cbnz	r3, 1788 <us_ticker_init+0x4c>
    1744:	4912      	ldr	r1, [pc, #72]	; (1790 <us_ticker_init+0x54>)
    1746:	2401      	movs	r4, #1
    1748:	f8d1 50c4 	ldr.w	r5, [r1, #196]	; 0xc4
    174c:	6014      	str	r4, [r2, #0]
    174e:	4a11      	ldr	r2, [pc, #68]	; (1794 <us_ticker_init+0x58>)
    1750:	4811      	ldr	r0, [pc, #68]	; (1798 <us_ticker_init+0x5c>)
    1752:	f445 0500 	orr.w	r5, r5, #8388608	; 0x800000
    1756:	f8c1 50c4 	str.w	r5, [r1, #196]	; 0xc4
    175a:	6713      	str	r3, [r2, #112]	; 0x70
    175c:	6803      	ldr	r3, [r0, #0]
    175e:	f101 7143 	add.w	r1, r1, #51118080	; 0x30c0000
    1762:	f501 51f4 	add.w	r1, r1, #7808	; 0x1e80
    1766:	3103      	adds	r1, #3
    1768:	089b      	lsrs	r3, r3, #2
    176a:	fba1 0303 	umull	r0, r3, r1, r3
    176e:	0c9b      	lsrs	r3, r3, #18
    1770:	3b01      	subs	r3, #1
    1772:	2102      	movs	r1, #2
    1774:	6051      	str	r1, [r2, #4]
    1776:	2004      	movs	r0, #4
    1778:	60d3      	str	r3, [r2, #12]
    177a:	4908      	ldr	r1, [pc, #32]	; (179c <us_ticker_init+0x60>)
    177c:	6054      	str	r4, [r2, #4]
    177e:	f7fe fdb3 	bl	2e8 <NVIC_SetVector>
    1782:	4b07      	ldr	r3, [pc, #28]	; (17a0 <us_ticker_init+0x64>)
    1784:	2210      	movs	r2, #16
    1786:	601a      	str	r2, [r3, #0]
    1788:	bd38      	pop	{r3, r4, r5, pc}
    178a:	bf00      	nop
    178c:	100007e4 	.word	0x100007e4
    1790:	400fc000 	.word	0x400fc000
    1794:	40094000 	.word	0x40094000
    1798:	100000cc 	.word	0x100000cc
    179c:	000019c1 	.word	0x000019c1
    17a0:	e000e100 	.word	0xe000e100

000017a4 <us_ticker_read>:
    17a4:	b508      	push	{r3, lr}
    17a6:	4b04      	ldr	r3, [pc, #16]	; (17b8 <us_ticker_read+0x14>)
    17a8:	681b      	ldr	r3, [r3, #0]
    17aa:	b90b      	cbnz	r3, 17b0 <us_ticker_read+0xc>
    17ac:	f7ff ffc6 	bl	173c <us_ticker_init>
    17b0:	4b02      	ldr	r3, [pc, #8]	; (17bc <us_ticker_read+0x18>)
    17b2:	6898      	ldr	r0, [r3, #8]
    17b4:	bd08      	pop	{r3, pc}
    17b6:	bf00      	nop
    17b8:	100007e4 	.word	0x100007e4
    17bc:	40094000 	.word	0x40094000

000017c0 <us_ticker_set_interrupt>:
    17c0:	4b03      	ldr	r3, [pc, #12]	; (17d0 <us_ticker_set_interrupt+0x10>)
    17c2:	6198      	str	r0, [r3, #24]
    17c4:	695a      	ldr	r2, [r3, #20]
    17c6:	f042 0201 	orr.w	r2, r2, #1
    17ca:	615a      	str	r2, [r3, #20]
    17cc:	4770      	bx	lr
    17ce:	bf00      	nop
    17d0:	40094000 	.word	0x40094000

000017d4 <us_ticker_disable_interrupt>:
    17d4:	4b02      	ldr	r3, [pc, #8]	; (17e0 <us_ticker_disable_interrupt+0xc>)
    17d6:	695a      	ldr	r2, [r3, #20]
    17d8:	f022 0201 	bic.w	r2, r2, #1
    17dc:	615a      	str	r2, [r3, #20]
    17de:	4770      	bx	lr
    17e0:	40094000 	.word	0x40094000

000017e4 <us_ticker_clear_interrupt>:
    17e4:	4b01      	ldr	r3, [pc, #4]	; (17ec <us_ticker_clear_interrupt+0x8>)
    17e6:	2201      	movs	r2, #1
    17e8:	601a      	str	r2, [r3, #0]
    17ea:	4770      	bx	lr
    17ec:	40094000 	.word	0x40094000

000017f0 <_ZN4mbed8FileBaseD1Ev>:
    17f0:	4a09      	ldr	r2, [pc, #36]	; (1818 <_ZN4mbed8FileBaseD1Ev+0x28>)
    17f2:	6883      	ldr	r3, [r0, #8]
    17f4:	6002      	str	r2, [r0, #0]
    17f6:	b153      	cbz	r3, 180e <_ZN4mbed8FileBaseD1Ev+0x1e>
    17f8:	4b08      	ldr	r3, [pc, #32]	; (181c <_ZN4mbed8FileBaseD1Ev+0x2c>)
    17fa:	681a      	ldr	r2, [r3, #0]
    17fc:	4282      	cmp	r2, r0
    17fe:	d101      	bne.n	1804 <_ZN4mbed8FileBaseD1Ev+0x14>
    1800:	e006      	b.n	1810 <_ZN4mbed8FileBaseD1Ev+0x20>
    1802:	461a      	mov	r2, r3
    1804:	6853      	ldr	r3, [r2, #4]
    1806:	4283      	cmp	r3, r0
    1808:	d1fb      	bne.n	1802 <_ZN4mbed8FileBaseD1Ev+0x12>
    180a:	6843      	ldr	r3, [r0, #4]
    180c:	6053      	str	r3, [r2, #4]
    180e:	4770      	bx	lr
    1810:	6842      	ldr	r2, [r0, #4]
    1812:	601a      	str	r2, [r3, #0]
    1814:	4770      	bx	lr
    1816:	bf00      	nop
    1818:	00007b20 	.word	0x00007b20
    181c:	100007e8 	.word	0x100007e8

00001820 <_ZN4mbed8FileBaseD0Ev>:
    1820:	4a0c      	ldr	r2, [pc, #48]	; (1854 <_ZN4mbed8FileBaseD0Ev+0x34>)
    1822:	6883      	ldr	r3, [r0, #8]
    1824:	b510      	push	{r4, lr}
    1826:	4604      	mov	r4, r0
    1828:	6002      	str	r2, [r0, #0]
    182a:	b153      	cbz	r3, 1842 <_ZN4mbed8FileBaseD0Ev+0x22>
    182c:	4b0a      	ldr	r3, [pc, #40]	; (1858 <_ZN4mbed8FileBaseD0Ev+0x38>)
    182e:	681a      	ldr	r2, [r3, #0]
    1830:	4290      	cmp	r0, r2
    1832:	d101      	bne.n	1838 <_ZN4mbed8FileBaseD0Ev+0x18>
    1834:	e00a      	b.n	184c <_ZN4mbed8FileBaseD0Ev+0x2c>
    1836:	461a      	mov	r2, r3
    1838:	6853      	ldr	r3, [r2, #4]
    183a:	429c      	cmp	r4, r3
    183c:	d1fb      	bne.n	1836 <_ZN4mbed8FileBaseD0Ev+0x16>
    183e:	6863      	ldr	r3, [r4, #4]
    1840:	6053      	str	r3, [r2, #4]
    1842:	4620      	mov	r0, r4
    1844:	f000 f8f2 	bl	1a2c <_ZdlPv>
    1848:	4620      	mov	r0, r4
    184a:	bd10      	pop	{r4, pc}
    184c:	6842      	ldr	r2, [r0, #4]
    184e:	601a      	str	r2, [r3, #0]
    1850:	e7f7      	b.n	1842 <_ZN4mbed8FileBaseD0Ev+0x22>
    1852:	bf00      	nop
    1854:	00007b20 	.word	0x00007b20
    1858:	100007e8 	.word	0x100007e8

0000185c <_ZN4mbed8FileBaseC1EPKcNS_8PathTypeE>:
    185c:	4b07      	ldr	r3, [pc, #28]	; (187c <_ZN4mbed8FileBaseC1EPKcNS_8PathTypeE+0x20>)
    185e:	b410      	push	{r4}
    1860:	2400      	movs	r4, #0
    1862:	7302      	strb	r2, [r0, #12]
    1864:	6081      	str	r1, [r0, #8]
    1866:	e880 0018 	stmia.w	r0, {r3, r4}
    186a:	b119      	cbz	r1, 1874 <_ZN4mbed8FileBaseC1EPKcNS_8PathTypeE+0x18>
    186c:	4b04      	ldr	r3, [pc, #16]	; (1880 <_ZN4mbed8FileBaseC1EPKcNS_8PathTypeE+0x24>)
    186e:	681a      	ldr	r2, [r3, #0]
    1870:	6018      	str	r0, [r3, #0]
    1872:	6042      	str	r2, [r0, #4]
    1874:	f85d 4b04 	ldr.w	r4, [sp], #4
    1878:	4770      	bx	lr
    187a:	bf00      	nop
    187c:	00007b20 	.word	0x00007b20
    1880:	100007e8 	.word	0x100007e8

00001884 <_ZN4mbed8FileBase6lookupEPKcj>:
    1884:	4b0d      	ldr	r3, [pc, #52]	; (18bc <_ZN4mbed8FileBase6lookupEPKcj+0x38>)
    1886:	b570      	push	{r4, r5, r6, lr}
    1888:	681c      	ldr	r4, [r3, #0]
    188a:	4606      	mov	r6, r0
    188c:	460d      	mov	r5, r1
    188e:	b914      	cbnz	r4, 1896 <_ZN4mbed8FileBase6lookupEPKcj+0x12>
    1890:	e012      	b.n	18b8 <_ZN4mbed8FileBase6lookupEPKcj+0x34>
    1892:	6864      	ldr	r4, [r4, #4]
    1894:	b184      	cbz	r4, 18b8 <_ZN4mbed8FileBase6lookupEPKcj+0x34>
    1896:	68a3      	ldr	r3, [r4, #8]
    1898:	4631      	mov	r1, r6
    189a:	462a      	mov	r2, r5
    189c:	4618      	mov	r0, r3
    189e:	2b00      	cmp	r3, #0
    18a0:	d0f7      	beq.n	1892 <_ZN4mbed8FileBase6lookupEPKcj+0xe>
    18a2:	f001 ff90 	bl	37c6 <strncmp>
    18a6:	2800      	cmp	r0, #0
    18a8:	d1f3      	bne.n	1892 <_ZN4mbed8FileBase6lookupEPKcj+0xe>
    18aa:	68a0      	ldr	r0, [r4, #8]
    18ac:	f001 ff83 	bl	37b6 <strlen>
    18b0:	42a8      	cmp	r0, r5
    18b2:	d1ee      	bne.n	1892 <_ZN4mbed8FileBase6lookupEPKcj+0xe>
    18b4:	4620      	mov	r0, r4
    18b6:	bd70      	pop	{r4, r5, r6, pc}
    18b8:	2000      	movs	r0, #0
    18ba:	bd70      	pop	{r4, r5, r6, pc}
    18bc:	100007e8 	.word	0x100007e8

000018c0 <_ZN4mbed8FileBase11getPathTypeEv>:
    18c0:	7b00      	ldrb	r0, [r0, #12]
    18c2:	4770      	bx	lr

000018c4 <_ZN4mbed8FileLikeD1Ev>:
    18c4:	b510      	push	{r4, lr}
    18c6:	4b07      	ldr	r3, [pc, #28]	; (18e4 <_ZN4mbed8FileLikeD1Ev+0x20>)
    18c8:	4604      	mov	r4, r0
    18ca:	f103 0208 	add.w	r2, r3, #8
    18ce:	3334      	adds	r3, #52	; 0x34
    18d0:	6022      	str	r2, [r4, #0]
    18d2:	f840 3f04 	str.w	r3, [r0, #4]!
    18d6:	f7ff ff8b 	bl	17f0 <_ZN4mbed8FileBaseD1Ev>
    18da:	4620      	mov	r0, r4
    18dc:	f7fe fe1e 	bl	51c <_ZN4mbed10FileHandleD1Ev>
    18e0:	4620      	mov	r0, r4
    18e2:	bd10      	pop	{r4, pc}
    18e4:	00007b28 	.word	0x00007b28

000018e8 <_ZThn4_N4mbed8FileLikeD1Ev>:
    18e8:	f1a0 0004 	sub.w	r0, r0, #4
    18ec:	f7ff bfea 	b.w	18c4 <_ZN4mbed8FileLikeD1Ev>

000018f0 <_ZN4mbed8FileLikeD0Ev>:
    18f0:	4b09      	ldr	r3, [pc, #36]	; (1918 <_ZN4mbed8FileLikeD0Ev+0x28>)
    18f2:	b510      	push	{r4, lr}
    18f4:	f103 0208 	add.w	r2, r3, #8
    18f8:	4604      	mov	r4, r0
    18fa:	3334      	adds	r3, #52	; 0x34
    18fc:	6022      	str	r2, [r4, #0]
    18fe:	f840 3f04 	str.w	r3, [r0, #4]!
    1902:	f7ff ff75 	bl	17f0 <_ZN4mbed8FileBaseD1Ev>
    1906:	4620      	mov	r0, r4
    1908:	f7fe fe08 	bl	51c <_ZN4mbed10FileHandleD1Ev>
    190c:	4620      	mov	r0, r4
    190e:	f000 f88d 	bl	1a2c <_ZdlPv>
    1912:	4620      	mov	r0, r4
    1914:	bd10      	pop	{r4, pc}
    1916:	bf00      	nop
    1918:	00007b28 	.word	0x00007b28

0000191c <_ZThn4_N4mbed8FileLikeD0Ev>:
    191c:	f1a0 0004 	sub.w	r0, r0, #4
    1920:	f7ff bfe6 	b.w	18f0 <_ZN4mbed8FileLikeD0Ev>

00001924 <_ZN4mbed8FileLikeC1EPKc>:
    1924:	4b07      	ldr	r3, [pc, #28]	; (1944 <_ZN4mbed8FileLikeC1EPKc+0x20>)
    1926:	b510      	push	{r4, lr}
    1928:	2200      	movs	r2, #0
    192a:	4604      	mov	r4, r0
    192c:	f840 3b04 	str.w	r3, [r0], #4
    1930:	f7ff ff94 	bl	185c <_ZN4mbed8FileBaseC1EPKcNS_8PathTypeE>
    1934:	4b04      	ldr	r3, [pc, #16]	; (1948 <_ZN4mbed8FileLikeC1EPKc+0x24>)
    1936:	4620      	mov	r0, r4
    1938:	f103 0208 	add.w	r2, r3, #8
    193c:	3334      	adds	r3, #52	; 0x34
    193e:	e884 000c 	stmia.w	r4, {r2, r3}
    1942:	bd10      	pop	{r4, pc}
    1944:	000075a0 	.word	0x000075a0
    1948:	00007b28 	.word	0x00007b28

0000194c <_ZN4mbed10SerialBase12_irq_handlerEm9SerialIrq>:
    194c:	ebc1 01c1 	rsb	r1, r1, r1, lsl #3
    1950:	eb00 0081 	add.w	r0, r0, r1, lsl #2
    1954:	300c      	adds	r0, #12
    1956:	f000 b85d 	b.w	1a14 <_ZN4mbed15FunctionPointer4callEv>
    195a:	bf00      	nop

0000195c <_ZN4mbed10SerialBaseC1E7PinNameS1_>:
    195c:	b5f8      	push	{r3, r4, r5, r6, r7, lr}
    195e:	4b10      	ldr	r3, [pc, #64]	; (19a0 <_ZN4mbed10SerialBaseC1E7PinNameS1_+0x44>)
    1960:	2500      	movs	r5, #0
    1962:	4604      	mov	r4, r0
    1964:	e880 0028 	stmia.w	r0, {r3, r5}
    1968:	460e      	mov	r6, r1
    196a:	6085      	str	r5, [r0, #8]
    196c:	4629      	mov	r1, r5
    196e:	300c      	adds	r0, #12
    1970:	4617      	mov	r7, r2
    1972:	f000 f849 	bl	1a08 <_ZN4mbed15FunctionPointerC1EPFvvE>
    1976:	4629      	mov	r1, r5
    1978:	f104 0028 	add.w	r0, r4, #40	; 0x28
    197c:	f000 f844 	bl	1a08 <_ZN4mbed15FunctionPointerC1EPFvvE>
    1980:	1d25      	adds	r5, r4, #4
    1982:	f44f 5316 	mov.w	r3, #9600	; 0x2580
    1986:	4631      	mov	r1, r6
    1988:	463a      	mov	r2, r7
    198a:	6463      	str	r3, [r4, #68]	; 0x44
    198c:	4628      	mov	r0, r5
    198e:	f7ff fb23 	bl	fd8 <serial_init>
    1992:	4628      	mov	r0, r5
    1994:	4622      	mov	r2, r4
    1996:	4903      	ldr	r1, [pc, #12]	; (19a4 <_ZN4mbed10SerialBaseC1E7PinNameS1_+0x48>)
    1998:	f7ff fa08 	bl	dac <serial_irq_handler>
    199c:	4620      	mov	r0, r4
    199e:	bdf8      	pop	{r3, r4, r5, r6, r7, pc}
    19a0:	00007930 	.word	0x00007930
    19a4:	0000194d 	.word	0x0000194d

000019a8 <_ZN4mbed10SerialBase10_base_getcEv>:
    19a8:	3004      	adds	r0, #4
    19aa:	f7ff ba0f 	b.w	dcc <serial_getc>
    19ae:	bf00      	nop

000019b0 <_ZN4mbed10SerialBase10_base_putcEi>:
    19b0:	b510      	push	{r4, lr}
    19b2:	3004      	adds	r0, #4
    19b4:	460c      	mov	r4, r1
    19b6:	f7ff fa5f 	bl	e78 <serial_putc>
    19ba:	4620      	mov	r0, r4
    19bc:	bd10      	pop	{r4, pc}
    19be:	bf00      	nop

000019c0 <us_ticker_irq_handler>:
    19c0:	b570      	push	{r4, r5, r6, lr}
    19c2:	f7ff ff0f 	bl	17e4 <us_ticker_clear_interrupt>
    19c6:	4c0e      	ldr	r4, [pc, #56]	; (1a00 <us_ticker_irq_handler+0x40>)
    19c8:	4e0e      	ldr	r6, [pc, #56]	; (1a04 <us_ticker_irq_handler+0x44>)
    19ca:	6823      	ldr	r3, [r4, #0]
    19cc:	b173      	cbz	r3, 19ec <us_ticker_irq_handler+0x2c>
    19ce:	681d      	ldr	r5, [r3, #0]
    19d0:	f7ff fee8 	bl	17a4 <us_ticker_read>
    19d4:	1a28      	subs	r0, r5, r0
    19d6:	2800      	cmp	r0, #0
    19d8:	dc0c      	bgt.n	19f4 <us_ticker_irq_handler+0x34>
    19da:	6821      	ldr	r1, [r4, #0]
    19dc:	6832      	ldr	r2, [r6, #0]
    19de:	688b      	ldr	r3, [r1, #8]
    19e0:	6023      	str	r3, [r4, #0]
    19e2:	2a00      	cmp	r2, #0
    19e4:	d0f2      	beq.n	19cc <us_ticker_irq_handler+0xc>
    19e6:	6848      	ldr	r0, [r1, #4]
    19e8:	4790      	blx	r2
    19ea:	e7ee      	b.n	19ca <us_ticker_irq_handler+0xa>
    19ec:	e8bd 4070 	ldmia.w	sp!, {r4, r5, r6, lr}
    19f0:	f7ff bef0 	b.w	17d4 <us_ticker_disable_interrupt>
    19f4:	6823      	ldr	r3, [r4, #0]
    19f6:	e8bd 4070 	ldmia.w	sp!, {r4, r5, r6, lr}
    19fa:	6818      	ldr	r0, [r3, #0]
    19fc:	f7ff bee0 	b.w	17c0 <us_ticker_set_interrupt>
    1a00:	100007ec 	.word	0x100007ec
    1a04:	100007f0 	.word	0x100007f0

00001a08 <_ZN4mbed15FunctionPointerC1EPFvvE>:
    1a08:	2200      	movs	r2, #0
    1a0a:	e880 0006 	stmia.w	r0, {r1, r2}
    1a0e:	6182      	str	r2, [r0, #24]
    1a10:	4770      	bx	lr
    1a12:	bf00      	nop

00001a14 <_ZN4mbed15FunctionPointer4callEv>:
    1a14:	b508      	push	{r3, lr}
    1a16:	6803      	ldr	r3, [r0, #0]
    1a18:	4601      	mov	r1, r0
    1a1a:	b10b      	cbz	r3, 1a20 <_ZN4mbed15FunctionPointer4callEv+0xc>
    1a1c:	4798      	blx	r3
    1a1e:	bd08      	pop	{r3, pc}
    1a20:	6840      	ldr	r0, [r0, #4]
    1a22:	b110      	cbz	r0, 1a2a <_ZN4mbed15FunctionPointer4callEv+0x16>
    1a24:	698b      	ldr	r3, [r1, #24]
    1a26:	3108      	adds	r1, #8
    1a28:	4798      	blx	r3
    1a2a:	bd08      	pop	{r3, pc}

00001a2c <_ZdlPv>:
    1a2c:	f000 bb7a 	b.w	2124 <free>

00001a30 <__aeabi_atexit>:
    1a30:	4603      	mov	r3, r0
    1a32:	4608      	mov	r0, r1
    1a34:	4619      	mov	r1, r3
    1a36:	f000 b805 	b.w	1a44 <__cxa_atexit>

00001a3a <abs>:
    1a3a:	2800      	cmp	r0, #0
    1a3c:	bfb8      	it	lt
    1a3e:	4240      	neglt	r0, r0
    1a40:	4770      	bx	lr
	...

00001a44 <__cxa_atexit>:
    1a44:	b538      	push	{r3, r4, r5, lr}
    1a46:	4605      	mov	r5, r0
    1a48:	4804      	ldr	r0, [pc, #16]	; (1a5c <__cxa_atexit+0x18>)
    1a4a:	460c      	mov	r4, r1
    1a4c:	4613      	mov	r3, r2
    1a4e:	b120      	cbz	r0, 1a5a <__cxa_atexit+0x16>
    1a50:	2002      	movs	r0, #2
    1a52:	4629      	mov	r1, r5
    1a54:	4622      	mov	r2, r4
    1a56:	f3af 8000 	nop.w
    1a5a:	bd38      	pop	{r3, r4, r5, pc}
    1a5c:	00000000 	.word	0x00000000

00001a60 <__errno>:
    1a60:	4b01      	ldr	r3, [pc, #4]	; (1a68 <__errno+0x8>)
    1a62:	6818      	ldr	r0, [r3, #0]
    1a64:	4770      	bx	lr
    1a66:	bf00      	nop
    1a68:	10000134 	.word	0x10000134

00001a6c <exit>:
    1a6c:	b508      	push	{r3, lr}
    1a6e:	4b07      	ldr	r3, [pc, #28]	; (1a8c <exit+0x20>)
    1a70:	4604      	mov	r4, r0
    1a72:	b113      	cbz	r3, 1a7a <exit+0xe>
    1a74:	2100      	movs	r1, #0
    1a76:	f3af 8000 	nop.w
    1a7a:	4b05      	ldr	r3, [pc, #20]	; (1a90 <exit+0x24>)
    1a7c:	6818      	ldr	r0, [r3, #0]
    1a7e:	6a83      	ldr	r3, [r0, #40]	; 0x28
    1a80:	b103      	cbz	r3, 1a84 <exit+0x18>
    1a82:	4798      	blx	r3
    1a84:	4620      	mov	r0, r4
    1a86:	f7fe fec3 	bl	810 <_exit>
    1a8a:	bf00      	nop
    1a8c:	00000000 	.word	0x00000000
    1a90:	00007bcc 	.word	0x00007bcc

00001a94 <_fclose_r>:
    1a94:	b570      	push	{r4, r5, r6, lr}
    1a96:	4605      	mov	r5, r0
    1a98:	460c      	mov	r4, r1
    1a9a:	b909      	cbnz	r1, 1aa0 <_fclose_r+0xc>
    1a9c:	2000      	movs	r0, #0
    1a9e:	bd70      	pop	{r4, r5, r6, pc}
    1aa0:	b118      	cbz	r0, 1aaa <_fclose_r+0x16>
    1aa2:	6983      	ldr	r3, [r0, #24]
    1aa4:	b90b      	cbnz	r3, 1aaa <_fclose_r+0x16>
    1aa6:	f000 f94f 	bl	1d48 <__sinit>
    1aaa:	4b20      	ldr	r3, [pc, #128]	; (1b2c <_fclose_r+0x98>)
    1aac:	429c      	cmp	r4, r3
    1aae:	d101      	bne.n	1ab4 <_fclose_r+0x20>
    1ab0:	686c      	ldr	r4, [r5, #4]
    1ab2:	e008      	b.n	1ac6 <_fclose_r+0x32>
    1ab4:	4b1e      	ldr	r3, [pc, #120]	; (1b30 <_fclose_r+0x9c>)
    1ab6:	429c      	cmp	r4, r3
    1ab8:	d101      	bne.n	1abe <_fclose_r+0x2a>
    1aba:	68ac      	ldr	r4, [r5, #8]
    1abc:	e003      	b.n	1ac6 <_fclose_r+0x32>
    1abe:	4b1d      	ldr	r3, [pc, #116]	; (1b34 <_fclose_r+0xa0>)
    1ac0:	429c      	cmp	r4, r3
    1ac2:	bf08      	it	eq
    1ac4:	68ec      	ldreq	r4, [r5, #12]
    1ac6:	f9b4 300c 	ldrsh.w	r3, [r4, #12]
    1aca:	2b00      	cmp	r3, #0
    1acc:	d0e6      	beq.n	1a9c <_fclose_r+0x8>
    1ace:	4628      	mov	r0, r5
    1ad0:	4621      	mov	r1, r4
    1ad2:	f000 f839 	bl	1b48 <__sflush_r>
    1ad6:	6b23      	ldr	r3, [r4, #48]	; 0x30
    1ad8:	4606      	mov	r6, r0
    1ada:	b133      	cbz	r3, 1aea <_fclose_r+0x56>
    1adc:	4628      	mov	r0, r5
    1ade:	6a21      	ldr	r1, [r4, #32]
    1ae0:	4798      	blx	r3
    1ae2:	2800      	cmp	r0, #0
    1ae4:	bfb8      	it	lt
    1ae6:	f04f 36ff 	movlt.w	r6, #4294967295
    1aea:	89a3      	ldrh	r3, [r4, #12]
    1aec:	061b      	lsls	r3, r3, #24
    1aee:	d503      	bpl.n	1af8 <_fclose_r+0x64>
    1af0:	4628      	mov	r0, r5
    1af2:	6921      	ldr	r1, [r4, #16]
    1af4:	f000 fb40 	bl	2178 <_free_r>
    1af8:	6b61      	ldr	r1, [r4, #52]	; 0x34
    1afa:	b141      	cbz	r1, 1b0e <_fclose_r+0x7a>
    1afc:	f104 0344 	add.w	r3, r4, #68	; 0x44
    1b00:	4299      	cmp	r1, r3
    1b02:	d002      	beq.n	1b0a <_fclose_r+0x76>
    1b04:	4628      	mov	r0, r5
    1b06:	f000 fb37 	bl	2178 <_free_r>
    1b0a:	2300      	movs	r3, #0
    1b0c:	6363      	str	r3, [r4, #52]	; 0x34
    1b0e:	6ca1      	ldr	r1, [r4, #72]	; 0x48
    1b10:	b121      	cbz	r1, 1b1c <_fclose_r+0x88>
    1b12:	4628      	mov	r0, r5
    1b14:	f000 fb30 	bl	2178 <_free_r>
    1b18:	2300      	movs	r3, #0
    1b1a:	64a3      	str	r3, [r4, #72]	; 0x48
    1b1c:	f000 f97e 	bl	1e1c <__sfp_lock_acquire>
    1b20:	2300      	movs	r3, #0
    1b22:	81a3      	strh	r3, [r4, #12]
    1b24:	f000 f97b 	bl	1e1e <__sfp_lock_release>
    1b28:	4630      	mov	r0, r6
    1b2a:	bd70      	pop	{r4, r5, r6, pc}
    1b2c:	00007b68 	.word	0x00007b68
    1b30:	00007b88 	.word	0x00007b88
    1b34:	00007ba8 	.word	0x00007ba8

00001b38 <fclose>:
    1b38:	4b02      	ldr	r3, [pc, #8]	; (1b44 <fclose+0xc>)
    1b3a:	4601      	mov	r1, r0
    1b3c:	6818      	ldr	r0, [r3, #0]
    1b3e:	f7ff bfa9 	b.w	1a94 <_fclose_r>
    1b42:	bf00      	nop
    1b44:	10000134 	.word	0x10000134

00001b48 <__sflush_r>:
    1b48:	898a      	ldrh	r2, [r1, #12]
    1b4a:	e92d 41f0 	stmdb	sp!, {r4, r5, r6, r7, r8, lr}
    1b4e:	4605      	mov	r5, r0
    1b50:	0710      	lsls	r0, r2, #28
    1b52:	460c      	mov	r4, r1
    1b54:	d457      	bmi.n	1c06 <__sflush_r+0xbe>
    1b56:	684b      	ldr	r3, [r1, #4]
    1b58:	2b00      	cmp	r3, #0
    1b5a:	dc02      	bgt.n	1b62 <__sflush_r+0x1a>
    1b5c:	6c0b      	ldr	r3, [r1, #64]	; 0x40
    1b5e:	2b00      	cmp	r3, #0
    1b60:	dd18      	ble.n	1b94 <__sflush_r+0x4c>
    1b62:	6ae6      	ldr	r6, [r4, #44]	; 0x2c
    1b64:	b1b6      	cbz	r6, 1b94 <__sflush_r+0x4c>
    1b66:	f402 5280 	and.w	r2, r2, #4096	; 0x1000
    1b6a:	2300      	movs	r3, #0
    1b6c:	b292      	uxth	r2, r2
    1b6e:	682f      	ldr	r7, [r5, #0]
    1b70:	602b      	str	r3, [r5, #0]
    1b72:	b10a      	cbz	r2, 1b78 <__sflush_r+0x30>
    1b74:	6d62      	ldr	r2, [r4, #84]	; 0x54
    1b76:	e010      	b.n	1b9a <__sflush_r+0x52>
    1b78:	6a21      	ldr	r1, [r4, #32]
    1b7a:	4628      	mov	r0, r5
    1b7c:	2301      	movs	r3, #1
    1b7e:	47b0      	blx	r6
    1b80:	1c41      	adds	r1, r0, #1
    1b82:	4602      	mov	r2, r0
    1b84:	d109      	bne.n	1b9a <__sflush_r+0x52>
    1b86:	682b      	ldr	r3, [r5, #0]
    1b88:	b13b      	cbz	r3, 1b9a <__sflush_r+0x52>
    1b8a:	2b1d      	cmp	r3, #29
    1b8c:	d001      	beq.n	1b92 <__sflush_r+0x4a>
    1b8e:	2b16      	cmp	r3, #22
    1b90:	d146      	bne.n	1c20 <__sflush_r+0xd8>
    1b92:	602f      	str	r7, [r5, #0]
    1b94:	2000      	movs	r0, #0
    1b96:	e8bd 81f0 	ldmia.w	sp!, {r4, r5, r6, r7, r8, pc}
    1b9a:	89a3      	ldrh	r3, [r4, #12]
    1b9c:	075b      	lsls	r3, r3, #29
    1b9e:	d505      	bpl.n	1bac <__sflush_r+0x64>
    1ba0:	6863      	ldr	r3, [r4, #4]
    1ba2:	1ad2      	subs	r2, r2, r3
    1ba4:	6b63      	ldr	r3, [r4, #52]	; 0x34
    1ba6:	b10b      	cbz	r3, 1bac <__sflush_r+0x64>
    1ba8:	6c23      	ldr	r3, [r4, #64]	; 0x40
    1baa:	1ad2      	subs	r2, r2, r3
    1bac:	6ae6      	ldr	r6, [r4, #44]	; 0x2c
    1bae:	2300      	movs	r3, #0
    1bb0:	4628      	mov	r0, r5
    1bb2:	6a21      	ldr	r1, [r4, #32]
    1bb4:	47b0      	blx	r6
    1bb6:	1c46      	adds	r6, r0, #1
    1bb8:	89a3      	ldrh	r3, [r4, #12]
    1bba:	d105      	bne.n	1bc8 <__sflush_r+0x80>
    1bbc:	682a      	ldr	r2, [r5, #0]
    1bbe:	b11a      	cbz	r2, 1bc8 <__sflush_r+0x80>
    1bc0:	2a1d      	cmp	r2, #29
    1bc2:	d001      	beq.n	1bc8 <__sflush_r+0x80>
    1bc4:	2a16      	cmp	r2, #22
    1bc6:	d119      	bne.n	1bfc <__sflush_r+0xb4>
    1bc8:	2200      	movs	r2, #0
    1bca:	6062      	str	r2, [r4, #4]
    1bcc:	6922      	ldr	r2, [r4, #16]
    1bce:	04d9      	lsls	r1, r3, #19
    1bd0:	6022      	str	r2, [r4, #0]
    1bd2:	d504      	bpl.n	1bde <__sflush_r+0x96>
    1bd4:	1c42      	adds	r2, r0, #1
    1bd6:	d101      	bne.n	1bdc <__sflush_r+0x94>
    1bd8:	682b      	ldr	r3, [r5, #0]
    1bda:	b903      	cbnz	r3, 1bde <__sflush_r+0x96>
    1bdc:	6560      	str	r0, [r4, #84]	; 0x54
    1bde:	6b61      	ldr	r1, [r4, #52]	; 0x34
    1be0:	602f      	str	r7, [r5, #0]
    1be2:	2900      	cmp	r1, #0
    1be4:	d0d6      	beq.n	1b94 <__sflush_r+0x4c>
    1be6:	f104 0344 	add.w	r3, r4, #68	; 0x44
    1bea:	4299      	cmp	r1, r3
    1bec:	d002      	beq.n	1bf4 <__sflush_r+0xac>
    1bee:	4628      	mov	r0, r5
    1bf0:	f000 fac2 	bl	2178 <_free_r>
    1bf4:	2000      	movs	r0, #0
    1bf6:	6360      	str	r0, [r4, #52]	; 0x34
    1bf8:	e8bd 81f0 	ldmia.w	sp!, {r4, r5, r6, r7, r8, pc}
    1bfc:	f043 0340 	orr.w	r3, r3, #64	; 0x40
    1c00:	81a3      	strh	r3, [r4, #12]
    1c02:	e8bd 81f0 	ldmia.w	sp!, {r4, r5, r6, r7, r8, pc}
    1c06:	690f      	ldr	r7, [r1, #16]
    1c08:	2f00      	cmp	r7, #0
    1c0a:	d0c3      	beq.n	1b94 <__sflush_r+0x4c>
    1c0c:	0793      	lsls	r3, r2, #30
    1c0e:	680e      	ldr	r6, [r1, #0]
    1c10:	bf0c      	ite	eq
    1c12:	694b      	ldreq	r3, [r1, #20]
    1c14:	2300      	movne	r3, #0
    1c16:	ebc7 0806 	rsb	r8, r7, r6
    1c1a:	600f      	str	r7, [r1, #0]
    1c1c:	608b      	str	r3, [r1, #8]
    1c1e:	e012      	b.n	1c46 <__sflush_r+0xfe>
    1c20:	89a3      	ldrh	r3, [r4, #12]
    1c22:	f04f 30ff 	mov.w	r0, #4294967295
    1c26:	f043 0340 	orr.w	r3, r3, #64	; 0x40
    1c2a:	81a3      	strh	r3, [r4, #12]
    1c2c:	e8bd 81f0 	ldmia.w	sp!, {r4, r5, r6, r7, r8, pc}
    1c30:	4628      	mov	r0, r5
    1c32:	6a21      	ldr	r1, [r4, #32]
    1c34:	463a      	mov	r2, r7
    1c36:	4643      	mov	r3, r8
    1c38:	6aa6      	ldr	r6, [r4, #40]	; 0x28
    1c3a:	47b0      	blx	r6
    1c3c:	2800      	cmp	r0, #0
    1c3e:	ddef      	ble.n	1c20 <__sflush_r+0xd8>
    1c40:	4407      	add	r7, r0
    1c42:	ebc0 0808 	rsb	r8, r0, r8
    1c46:	f1b8 0f00 	cmp.w	r8, #0
    1c4a:	dcf1      	bgt.n	1c30 <__sflush_r+0xe8>
    1c4c:	e7a2      	b.n	1b94 <__sflush_r+0x4c>
	...

00001c50 <_fflush_r>:
    1c50:	b538      	push	{r3, r4, r5, lr}
    1c52:	690b      	ldr	r3, [r1, #16]
    1c54:	4605      	mov	r5, r0
    1c56:	460c      	mov	r4, r1
    1c58:	b1db      	cbz	r3, 1c92 <_fflush_r+0x42>
    1c5a:	b118      	cbz	r0, 1c64 <_fflush_r+0x14>
    1c5c:	6983      	ldr	r3, [r0, #24]
    1c5e:	b90b      	cbnz	r3, 1c64 <_fflush_r+0x14>
    1c60:	f000 f872 	bl	1d48 <__sinit>
    1c64:	4b0c      	ldr	r3, [pc, #48]	; (1c98 <_fflush_r+0x48>)
    1c66:	429c      	cmp	r4, r3
    1c68:	d101      	bne.n	1c6e <_fflush_r+0x1e>
    1c6a:	686c      	ldr	r4, [r5, #4]
    1c6c:	e008      	b.n	1c80 <_fflush_r+0x30>
    1c6e:	4b0b      	ldr	r3, [pc, #44]	; (1c9c <_fflush_r+0x4c>)
    1c70:	429c      	cmp	r4, r3
    1c72:	d101      	bne.n	1c78 <_fflush_r+0x28>
    1c74:	68ac      	ldr	r4, [r5, #8]
    1c76:	e003      	b.n	1c80 <_fflush_r+0x30>
    1c78:	4b09      	ldr	r3, [pc, #36]	; (1ca0 <_fflush_r+0x50>)
    1c7a:	429c      	cmp	r4, r3
    1c7c:	bf08      	it	eq
    1c7e:	68ec      	ldreq	r4, [r5, #12]
    1c80:	f9b4 300c 	ldrsh.w	r3, [r4, #12]
    1c84:	b12b      	cbz	r3, 1c92 <_fflush_r+0x42>
    1c86:	4628      	mov	r0, r5
    1c88:	4621      	mov	r1, r4
    1c8a:	e8bd 4038 	ldmia.w	sp!, {r3, r4, r5, lr}
    1c8e:	f7ff bf5b 	b.w	1b48 <__sflush_r>
    1c92:	2000      	movs	r0, #0
    1c94:	bd38      	pop	{r3, r4, r5, pc}
    1c96:	bf00      	nop
    1c98:	00007b68 	.word	0x00007b68
    1c9c:	00007b88 	.word	0x00007b88
    1ca0:	00007ba8 	.word	0x00007ba8

00001ca4 <fflush>:
    1ca4:	4601      	mov	r1, r0
    1ca6:	b920      	cbnz	r0, 1cb2 <fflush+0xe>
    1ca8:	4b04      	ldr	r3, [pc, #16]	; (1cbc <fflush+0x18>)
    1caa:	4905      	ldr	r1, [pc, #20]	; (1cc0 <fflush+0x1c>)
    1cac:	6818      	ldr	r0, [r3, #0]
    1cae:	f000 b9a1 	b.w	1ff4 <_fwalk_reent>
    1cb2:	4b04      	ldr	r3, [pc, #16]	; (1cc4 <fflush+0x20>)
    1cb4:	6818      	ldr	r0, [r3, #0]
    1cb6:	f7ff bfcb 	b.w	1c50 <_fflush_r>
    1cba:	bf00      	nop
    1cbc:	00007bcc 	.word	0x00007bcc
    1cc0:	00001c51 	.word	0x00001c51
    1cc4:	10000134 	.word	0x10000134

00001cc8 <_cleanup_r>:
    1cc8:	4901      	ldr	r1, [pc, #4]	; (1cd0 <_cleanup_r+0x8>)
    1cca:	f000 b993 	b.w	1ff4 <_fwalk_reent>
    1cce:	bf00      	nop
    1cd0:	00001c51 	.word	0x00001c51

00001cd4 <std.isra.0>:
    1cd4:	b510      	push	{r4, lr}
    1cd6:	4604      	mov	r4, r0
    1cd8:	2300      	movs	r3, #0
    1cda:	6003      	str	r3, [r0, #0]
    1cdc:	6043      	str	r3, [r0, #4]
    1cde:	6083      	str	r3, [r0, #8]
    1ce0:	8181      	strh	r1, [r0, #12]
    1ce2:	6643      	str	r3, [r0, #100]	; 0x64
    1ce4:	81c2      	strh	r2, [r0, #14]
    1ce6:	6103      	str	r3, [r0, #16]
    1ce8:	6143      	str	r3, [r0, #20]
    1cea:	6183      	str	r3, [r0, #24]
    1cec:	4619      	mov	r1, r3
    1cee:	305c      	adds	r0, #92	; 0x5c
    1cf0:	2208      	movs	r2, #8
    1cf2:	f000 fa38 	bl	2166 <memset>
    1cf6:	4b05      	ldr	r3, [pc, #20]	; (1d0c <std.isra.0+0x38>)
    1cf8:	6224      	str	r4, [r4, #32]
    1cfa:	6263      	str	r3, [r4, #36]	; 0x24
    1cfc:	4b04      	ldr	r3, [pc, #16]	; (1d10 <std.isra.0+0x3c>)
    1cfe:	62a3      	str	r3, [r4, #40]	; 0x28
    1d00:	4b04      	ldr	r3, [pc, #16]	; (1d14 <std.isra.0+0x40>)
    1d02:	62e3      	str	r3, [r4, #44]	; 0x2c
    1d04:	4b04      	ldr	r3, [pc, #16]	; (1d18 <std.isra.0+0x44>)
    1d06:	6323      	str	r3, [r4, #48]	; 0x30
    1d08:	bd10      	pop	{r4, pc}
    1d0a:	bf00      	nop
    1d0c:	00003719 	.word	0x00003719
    1d10:	0000373f 	.word	0x0000373f
    1d14:	00003777 	.word	0x00003777
    1d18:	0000379b 	.word	0x0000379b

00001d1c <__sfmoreglue>:
    1d1c:	b570      	push	{r4, r5, r6, lr}
    1d1e:	2368      	movs	r3, #104	; 0x68
    1d20:	1e4d      	subs	r5, r1, #1
    1d22:	435d      	muls	r5, r3
    1d24:	460e      	mov	r6, r1
    1d26:	f105 0174 	add.w	r1, r5, #116	; 0x74
    1d2a:	f000 fa69 	bl	2200 <_malloc_r>
    1d2e:	4604      	mov	r4, r0
    1d30:	b140      	cbz	r0, 1d44 <__sfmoreglue+0x28>
    1d32:	2100      	movs	r1, #0
    1d34:	e880 0042 	stmia.w	r0, {r1, r6}
    1d38:	300c      	adds	r0, #12
    1d3a:	60a0      	str	r0, [r4, #8]
    1d3c:	f105 0268 	add.w	r2, r5, #104	; 0x68
    1d40:	f000 fa11 	bl	2166 <memset>
    1d44:	4620      	mov	r0, r4
    1d46:	bd70      	pop	{r4, r5, r6, pc}

00001d48 <__sinit>:
    1d48:	6983      	ldr	r3, [r0, #24]
    1d4a:	b510      	push	{r4, lr}
    1d4c:	4604      	mov	r4, r0
    1d4e:	bb33      	cbnz	r3, 1d9e <__sinit+0x56>
    1d50:	6483      	str	r3, [r0, #72]	; 0x48
    1d52:	64c3      	str	r3, [r0, #76]	; 0x4c
    1d54:	6503      	str	r3, [r0, #80]	; 0x50
    1d56:	4b12      	ldr	r3, [pc, #72]	; (1da0 <__sinit+0x58>)
    1d58:	4a12      	ldr	r2, [pc, #72]	; (1da4 <__sinit+0x5c>)
    1d5a:	681b      	ldr	r3, [r3, #0]
    1d5c:	6282      	str	r2, [r0, #40]	; 0x28
    1d5e:	4298      	cmp	r0, r3
    1d60:	bf04      	itt	eq
    1d62:	2301      	moveq	r3, #1
    1d64:	6183      	streq	r3, [r0, #24]
    1d66:	f000 f81f 	bl	1da8 <__sfp>
    1d6a:	6060      	str	r0, [r4, #4]
    1d6c:	4620      	mov	r0, r4
    1d6e:	f000 f81b 	bl	1da8 <__sfp>
    1d72:	60a0      	str	r0, [r4, #8]
    1d74:	4620      	mov	r0, r4
    1d76:	f000 f817 	bl	1da8 <__sfp>
    1d7a:	2104      	movs	r1, #4
    1d7c:	60e0      	str	r0, [r4, #12]
    1d7e:	2200      	movs	r2, #0
    1d80:	6860      	ldr	r0, [r4, #4]
    1d82:	f7ff ffa7 	bl	1cd4 <std.isra.0>
    1d86:	68a0      	ldr	r0, [r4, #8]
    1d88:	2109      	movs	r1, #9
    1d8a:	2201      	movs	r2, #1
    1d8c:	f7ff ffa2 	bl	1cd4 <std.isra.0>
    1d90:	68e0      	ldr	r0, [r4, #12]
    1d92:	2112      	movs	r1, #18
    1d94:	2202      	movs	r2, #2
    1d96:	f7ff ff9d 	bl	1cd4 <std.isra.0>
    1d9a:	2301      	movs	r3, #1
    1d9c:	61a3      	str	r3, [r4, #24]
    1d9e:	bd10      	pop	{r4, pc}
    1da0:	00007bcc 	.word	0x00007bcc
    1da4:	00001cc9 	.word	0x00001cc9

00001da8 <__sfp>:
    1da8:	b5f8      	push	{r3, r4, r5, r6, r7, lr}
    1daa:	4b1b      	ldr	r3, [pc, #108]	; (1e18 <__sfp+0x70>)
    1dac:	4607      	mov	r7, r0
    1dae:	681e      	ldr	r6, [r3, #0]
    1db0:	69b3      	ldr	r3, [r6, #24]
    1db2:	b913      	cbnz	r3, 1dba <__sfp+0x12>
    1db4:	4630      	mov	r0, r6
    1db6:	f7ff ffc7 	bl	1d48 <__sinit>
    1dba:	3648      	adds	r6, #72	; 0x48
    1dbc:	68b4      	ldr	r4, [r6, #8]
    1dbe:	6873      	ldr	r3, [r6, #4]
    1dc0:	3b01      	subs	r3, #1
    1dc2:	d404      	bmi.n	1dce <__sfp+0x26>
    1dc4:	f9b4 500c 	ldrsh.w	r5, [r4, #12]
    1dc8:	b175      	cbz	r5, 1de8 <__sfp+0x40>
    1dca:	3468      	adds	r4, #104	; 0x68
    1dcc:	e7f8      	b.n	1dc0 <__sfp+0x18>
    1dce:	6833      	ldr	r3, [r6, #0]
    1dd0:	b92b      	cbnz	r3, 1dde <__sfp+0x36>
    1dd2:	4638      	mov	r0, r7
    1dd4:	2104      	movs	r1, #4
    1dd6:	f7ff ffa1 	bl	1d1c <__sfmoreglue>
    1dda:	6030      	str	r0, [r6, #0]
    1ddc:	b108      	cbz	r0, 1de2 <__sfp+0x3a>
    1dde:	6836      	ldr	r6, [r6, #0]
    1de0:	e7ec      	b.n	1dbc <__sfp+0x14>
    1de2:	230c      	movs	r3, #12
    1de4:	603b      	str	r3, [r7, #0]
    1de6:	bdf8      	pop	{r3, r4, r5, r6, r7, pc}
    1de8:	f64f 73ff 	movw	r3, #65535	; 0xffff
    1dec:	81e3      	strh	r3, [r4, #14]
    1dee:	2301      	movs	r3, #1
    1df0:	81a3      	strh	r3, [r4, #12]
    1df2:	6665      	str	r5, [r4, #100]	; 0x64
    1df4:	6025      	str	r5, [r4, #0]
    1df6:	60a5      	str	r5, [r4, #8]
    1df8:	6065      	str	r5, [r4, #4]
    1dfa:	6125      	str	r5, [r4, #16]
    1dfc:	6165      	str	r5, [r4, #20]
    1dfe:	61a5      	str	r5, [r4, #24]
    1e00:	f104 005c 	add.w	r0, r4, #92	; 0x5c
    1e04:	4629      	mov	r1, r5
    1e06:	2208      	movs	r2, #8
    1e08:	f000 f9ad 	bl	2166 <memset>
    1e0c:	6365      	str	r5, [r4, #52]	; 0x34
    1e0e:	63a5      	str	r5, [r4, #56]	; 0x38
    1e10:	64a5      	str	r5, [r4, #72]	; 0x48
    1e12:	64e5      	str	r5, [r4, #76]	; 0x4c
    1e14:	4620      	mov	r0, r4
    1e16:	bdf8      	pop	{r3, r4, r5, r6, r7, pc}
    1e18:	00007bcc 	.word	0x00007bcc

00001e1c <__sfp_lock_acquire>:
    1e1c:	4770      	bx	lr

00001e1e <__sfp_lock_release>:
    1e1e:	4770      	bx	lr

00001e20 <_fopen_r>:
    1e20:	b5f7      	push	{r0, r1, r2, r4, r5, r6, r7, lr}
    1e22:	460f      	mov	r7, r1
    1e24:	4611      	mov	r1, r2
    1e26:	aa01      	add	r2, sp, #4
    1e28:	4605      	mov	r5, r0
    1e2a:	f003 fb9d 	bl	5568 <__sflags>
    1e2e:	4606      	mov	r6, r0
    1e30:	b908      	cbnz	r0, 1e36 <_fopen_r+0x16>
    1e32:	2000      	movs	r0, #0
    1e34:	e029      	b.n	1e8a <_fopen_r+0x6a>
    1e36:	4628      	mov	r0, r5
    1e38:	f7ff ffb6 	bl	1da8 <__sfp>
    1e3c:	4604      	mov	r4, r0
    1e3e:	2800      	cmp	r0, #0
    1e40:	d0f7      	beq.n	1e32 <_fopen_r+0x12>
    1e42:	4628      	mov	r0, r5
    1e44:	4639      	mov	r1, r7
    1e46:	9a01      	ldr	r2, [sp, #4]
    1e48:	f44f 73db 	mov.w	r3, #438	; 0x1b6
    1e4c:	f001 fb06 	bl	345c <_open_r>
    1e50:	2800      	cmp	r0, #0
    1e52:	da06      	bge.n	1e62 <_fopen_r+0x42>
    1e54:	2500      	movs	r5, #0
    1e56:	f7ff ffe1 	bl	1e1c <__sfp_lock_acquire>
    1e5a:	81a5      	strh	r5, [r4, #12]
    1e5c:	f7ff ffdf 	bl	1e1e <__sfp_lock_release>
    1e60:	e7e7      	b.n	1e32 <_fopen_r+0x12>
    1e62:	4b0b      	ldr	r3, [pc, #44]	; (1e90 <_fopen_r+0x70>)
    1e64:	81e0      	strh	r0, [r4, #14]
    1e66:	6263      	str	r3, [r4, #36]	; 0x24
    1e68:	4b0a      	ldr	r3, [pc, #40]	; (1e94 <_fopen_r+0x74>)
    1e6a:	81a6      	strh	r6, [r4, #12]
    1e6c:	62a3      	str	r3, [r4, #40]	; 0x28
    1e6e:	4b0a      	ldr	r3, [pc, #40]	; (1e98 <_fopen_r+0x78>)
    1e70:	6224      	str	r4, [r4, #32]
    1e72:	62e3      	str	r3, [r4, #44]	; 0x2c
    1e74:	4b09      	ldr	r3, [pc, #36]	; (1e9c <_fopen_r+0x7c>)
    1e76:	6323      	str	r3, [r4, #48]	; 0x30
    1e78:	05f3      	lsls	r3, r6, #23
    1e7a:	d505      	bpl.n	1e88 <_fopen_r+0x68>
    1e7c:	4628      	mov	r0, r5
    1e7e:	4621      	mov	r1, r4
    1e80:	2200      	movs	r2, #0
    1e82:	2302      	movs	r3, #2
    1e84:	f000 f828 	bl	1ed8 <_fseek_r>
    1e88:	4620      	mov	r0, r4
    1e8a:	b003      	add	sp, #12
    1e8c:	bdf0      	pop	{r4, r5, r6, r7, pc}
    1e8e:	bf00      	nop
    1e90:	00003719 	.word	0x00003719
    1e94:	0000373f 	.word	0x0000373f
    1e98:	00003777 	.word	0x00003777
    1e9c:	0000379b 	.word	0x0000379b

00001ea0 <fopen>:
    1ea0:	4603      	mov	r3, r0
    1ea2:	460a      	mov	r2, r1
    1ea4:	4902      	ldr	r1, [pc, #8]	; (1eb0 <fopen+0x10>)
    1ea6:	6808      	ldr	r0, [r1, #0]
    1ea8:	4619      	mov	r1, r3
    1eaa:	f7ff bfb9 	b.w	1e20 <_fopen_r>
    1eae:	bf00      	nop
    1eb0:	10000134 	.word	0x10000134

00001eb4 <fiprintf>:
    1eb4:	b40e      	push	{r1, r2, r3}
    1eb6:	b503      	push	{r0, r1, lr}
    1eb8:	4601      	mov	r1, r0
    1eba:	ab03      	add	r3, sp, #12
    1ebc:	4805      	ldr	r0, [pc, #20]	; (1ed4 <fiprintf+0x20>)
    1ebe:	f853 2b04 	ldr.w	r2, [r3], #4
    1ec2:	6800      	ldr	r0, [r0, #0]
    1ec4:	9301      	str	r3, [sp, #4]
    1ec6:	f000 fa19 	bl	22fc <_vfiprintf_r>
    1eca:	b002      	add	sp, #8
    1ecc:	f85d eb04 	ldr.w	lr, [sp], #4
    1ed0:	b003      	add	sp, #12
    1ed2:	4770      	bx	lr
    1ed4:	10000134 	.word	0x10000134

00001ed8 <_fseek_r>:
    1ed8:	f000 b800 	b.w	1edc <_fseeko_r>

00001edc <_fseeko_r>:
    1edc:	e92d 43f8 	stmdb	sp!, {r3, r4, r5, r6, r7, r8, r9, lr}
    1ee0:	460c      	mov	r4, r1
    1ee2:	4690      	mov	r8, r2
    1ee4:	461e      	mov	r6, r3
    1ee6:	4605      	mov	r5, r0
    1ee8:	b118      	cbz	r0, 1ef2 <_fseeko_r+0x16>
    1eea:	6983      	ldr	r3, [r0, #24]
    1eec:	b90b      	cbnz	r3, 1ef2 <_fseeko_r+0x16>
    1eee:	f7ff ff2b 	bl	1d48 <__sinit>
    1ef2:	4b3d      	ldr	r3, [pc, #244]	; (1fe8 <_fseeko_r+0x10c>)
    1ef4:	429c      	cmp	r4, r3
    1ef6:	d101      	bne.n	1efc <_fseeko_r+0x20>
    1ef8:	686c      	ldr	r4, [r5, #4]
    1efa:	e008      	b.n	1f0e <_fseeko_r+0x32>
    1efc:	4b3b      	ldr	r3, [pc, #236]	; (1fec <_fseeko_r+0x110>)
    1efe:	429c      	cmp	r4, r3
    1f00:	d101      	bne.n	1f06 <_fseeko_r+0x2a>
    1f02:	68ac      	ldr	r4, [r5, #8]
    1f04:	e003      	b.n	1f0e <_fseeko_r+0x32>
    1f06:	4b3a      	ldr	r3, [pc, #232]	; (1ff0 <_fseeko_r+0x114>)
    1f08:	429c      	cmp	r4, r3
    1f0a:	bf08      	it	eq
    1f0c:	68ec      	ldreq	r4, [r5, #12]
    1f0e:	89a3      	ldrh	r3, [r4, #12]
    1f10:	f403 7384 	and.w	r3, r3, #264	; 0x108
    1f14:	f5b3 7f84 	cmp.w	r3, #264	; 0x108
    1f18:	d103      	bne.n	1f22 <_fseeko_r+0x46>
    1f1a:	4628      	mov	r0, r5
    1f1c:	4621      	mov	r1, r4
    1f1e:	f7ff fe97 	bl	1c50 <_fflush_r>
    1f22:	6ae7      	ldr	r7, [r4, #44]	; 0x2c
    1f24:	b90f      	cbnz	r7, 1f2a <_fseeko_r+0x4e>
    1f26:	231d      	movs	r3, #29
    1f28:	e02b      	b.n	1f82 <_fseeko_r+0xa6>
    1f2a:	2e01      	cmp	r6, #1
    1f2c:	d004      	beq.n	1f38 <_fseeko_r+0x5c>
    1f2e:	2e02      	cmp	r6, #2
    1f30:	d02b      	beq.n	1f8a <_fseeko_r+0xae>
    1f32:	b356      	cbz	r6, 1f8a <_fseeko_r+0xae>
    1f34:	2316      	movs	r3, #22
    1f36:	e024      	b.n	1f82 <_fseeko_r+0xa6>
    1f38:	4628      	mov	r0, r5
    1f3a:	4621      	mov	r1, r4
    1f3c:	f7ff fe88 	bl	1c50 <_fflush_r>
    1f40:	89a2      	ldrh	r2, [r4, #12]
    1f42:	f402 5280 	and.w	r2, r2, #4096	; 0x1000
    1f46:	b292      	uxth	r2, r2
    1f48:	b10a      	cbz	r2, 1f4e <_fseeko_r+0x72>
    1f4a:	6d60      	ldr	r0, [r4, #84]	; 0x54
    1f4c:	e005      	b.n	1f5a <_fseeko_r+0x7e>
    1f4e:	6a21      	ldr	r1, [r4, #32]
    1f50:	4628      	mov	r0, r5
    1f52:	4633      	mov	r3, r6
    1f54:	47b8      	blx	r7
    1f56:	1c41      	adds	r1, r0, #1
    1f58:	d014      	beq.n	1f84 <_fseeko_r+0xa8>
    1f5a:	89a3      	ldrh	r3, [r4, #12]
    1f5c:	075a      	lsls	r2, r3, #29
    1f5e:	d506      	bpl.n	1f6e <_fseeko_r+0x92>
    1f60:	6863      	ldr	r3, [r4, #4]
    1f62:	1ac0      	subs	r0, r0, r3
    1f64:	6b63      	ldr	r3, [r4, #52]	; 0x34
    1f66:	b14b      	cbz	r3, 1f7c <_fseeko_r+0xa0>
    1f68:	6c23      	ldr	r3, [r4, #64]	; 0x40
    1f6a:	1ac0      	subs	r0, r0, r3
    1f6c:	e006      	b.n	1f7c <_fseeko_r+0xa0>
    1f6e:	071b      	lsls	r3, r3, #28
    1f70:	d504      	bpl.n	1f7c <_fseeko_r+0xa0>
    1f72:	6823      	ldr	r3, [r4, #0]
    1f74:	b113      	cbz	r3, 1f7c <_fseeko_r+0xa0>
    1f76:	6922      	ldr	r2, [r4, #16]
    1f78:	1a9b      	subs	r3, r3, r2
    1f7a:	4418      	add	r0, r3
    1f7c:	4480      	add	r8, r0
    1f7e:	2600      	movs	r6, #0
    1f80:	e003      	b.n	1f8a <_fseeko_r+0xae>
    1f82:	602b      	str	r3, [r5, #0]
    1f84:	f04f 39ff 	mov.w	r9, #4294967295
    1f88:	e02b      	b.n	1fe2 <_fseeko_r+0x106>
    1f8a:	6923      	ldr	r3, [r4, #16]
    1f8c:	b91b      	cbnz	r3, 1f96 <_fseeko_r+0xba>
    1f8e:	4628      	mov	r0, r5
    1f90:	4621      	mov	r1, r4
    1f92:	f000 f873 	bl	207c <__smakebuf_r>
    1f96:	4628      	mov	r0, r5
    1f98:	4621      	mov	r1, r4
    1f9a:	f7ff fe59 	bl	1c50 <_fflush_r>
    1f9e:	4681      	mov	r9, r0
    1fa0:	2800      	cmp	r0, #0
    1fa2:	d1ef      	bne.n	1f84 <_fseeko_r+0xa8>
    1fa4:	4628      	mov	r0, r5
    1fa6:	6a21      	ldr	r1, [r4, #32]
    1fa8:	4642      	mov	r2, r8
    1faa:	4633      	mov	r3, r6
    1fac:	47b8      	blx	r7
    1fae:	3001      	adds	r0, #1
    1fb0:	d0e8      	beq.n	1f84 <_fseeko_r+0xa8>
    1fb2:	6b61      	ldr	r1, [r4, #52]	; 0x34
    1fb4:	b141      	cbz	r1, 1fc8 <_fseeko_r+0xec>
    1fb6:	f104 0344 	add.w	r3, r4, #68	; 0x44
    1fba:	4299      	cmp	r1, r3
    1fbc:	d002      	beq.n	1fc4 <_fseeko_r+0xe8>
    1fbe:	4628      	mov	r0, r5
    1fc0:	f000 f8da 	bl	2178 <_free_r>
    1fc4:	2300      	movs	r3, #0
    1fc6:	6363      	str	r3, [r4, #52]	; 0x34
    1fc8:	6923      	ldr	r3, [r4, #16]
    1fca:	2100      	movs	r1, #0
    1fcc:	6023      	str	r3, [r4, #0]
    1fce:	89a3      	ldrh	r3, [r4, #12]
    1fd0:	6061      	str	r1, [r4, #4]
    1fd2:	f423 6302 	bic.w	r3, r3, #2080	; 0x820
    1fd6:	81a3      	strh	r3, [r4, #12]
    1fd8:	f104 005c 	add.w	r0, r4, #92	; 0x5c
    1fdc:	2208      	movs	r2, #8
    1fde:	f000 f8c2 	bl	2166 <memset>
    1fe2:	4648      	mov	r0, r9
    1fe4:	e8bd 83f8 	ldmia.w	sp!, {r3, r4, r5, r6, r7, r8, r9, pc}
    1fe8:	00007b68 	.word	0x00007b68
    1fec:	00007b88 	.word	0x00007b88
    1ff0:	00007ba8 	.word	0x00007ba8

00001ff4 <_fwalk_reent>:
    1ff4:	e92d 43f8 	stmdb	sp!, {r3, r4, r5, r6, r7, r8, r9, lr}
    1ff8:	4680      	mov	r8, r0
    1ffa:	4689      	mov	r9, r1
    1ffc:	f100 0448 	add.w	r4, r0, #72	; 0x48
    2000:	2600      	movs	r6, #0
    2002:	b194      	cbz	r4, 202a <_fwalk_reent+0x36>
    2004:	68a5      	ldr	r5, [r4, #8]
    2006:	6867      	ldr	r7, [r4, #4]
    2008:	3f01      	subs	r7, #1
    200a:	d40c      	bmi.n	2026 <_fwalk_reent+0x32>
    200c:	89ab      	ldrh	r3, [r5, #12]
    200e:	2b01      	cmp	r3, #1
    2010:	d907      	bls.n	2022 <_fwalk_reent+0x2e>
    2012:	f9b5 300e 	ldrsh.w	r3, [r5, #14]
    2016:	3301      	adds	r3, #1
    2018:	d003      	beq.n	2022 <_fwalk_reent+0x2e>
    201a:	4640      	mov	r0, r8
    201c:	4629      	mov	r1, r5
    201e:	47c8      	blx	r9
    2020:	4306      	orrs	r6, r0
    2022:	3568      	adds	r5, #104	; 0x68
    2024:	e7f0      	b.n	2008 <_fwalk_reent+0x14>
    2026:	6824      	ldr	r4, [r4, #0]
    2028:	e7eb      	b.n	2002 <_fwalk_reent+0xe>
    202a:	4630      	mov	r0, r6
    202c:	e8bd 83f8 	ldmia.w	sp!, {r3, r4, r5, r6, r7, r8, r9, pc}

00002030 <__libc_init_array>:
    2030:	4b0e      	ldr	r3, [pc, #56]	; (206c <__libc_init_array+0x3c>)
    2032:	b570      	push	{r4, r5, r6, lr}
    2034:	461e      	mov	r6, r3
    2036:	4c0e      	ldr	r4, [pc, #56]	; (2070 <__libc_init_array+0x40>)
    2038:	2500      	movs	r5, #0
    203a:	1ae4      	subs	r4, r4, r3
    203c:	10a4      	asrs	r4, r4, #2
    203e:	42a5      	cmp	r5, r4
    2040:	d004      	beq.n	204c <__libc_init_array+0x1c>
    2042:	f856 3025 	ldr.w	r3, [r6, r5, lsl #2]
    2046:	4798      	blx	r3
    2048:	3501      	adds	r5, #1
    204a:	e7f8      	b.n	203e <__libc_init_array+0xe>
    204c:	f005 fa46 	bl	74dc <_init>
    2050:	4b08      	ldr	r3, [pc, #32]	; (2074 <__libc_init_array+0x44>)
    2052:	4c09      	ldr	r4, [pc, #36]	; (2078 <__libc_init_array+0x48>)
    2054:	461e      	mov	r6, r3
    2056:	1ae4      	subs	r4, r4, r3
    2058:	10a4      	asrs	r4, r4, #2
    205a:	2500      	movs	r5, #0
    205c:	42a5      	cmp	r5, r4
    205e:	d004      	beq.n	206a <__libc_init_array+0x3a>
    2060:	f856 3025 	ldr.w	r3, [r6, r5, lsl #2]
    2064:	4798      	blx	r3
    2066:	3501      	adds	r5, #1
    2068:	e7f8      	b.n	205c <__libc_init_array+0x2c>
    206a:	bd70      	pop	{r4, r5, r6, pc}
    206c:	10000174 	.word	0x10000174
    2070:	10000174 	.word	0x10000174
    2074:	10000174 	.word	0x10000174
    2078:	1000017c 	.word	0x1000017c

0000207c <__smakebuf_r>:
    207c:	b5f0      	push	{r4, r5, r6, r7, lr}
    207e:	898b      	ldrh	r3, [r1, #12]
    2080:	b091      	sub	sp, #68	; 0x44
    2082:	079d      	lsls	r5, r3, #30
    2084:	4606      	mov	r6, r0
    2086:	460c      	mov	r4, r1
    2088:	d425      	bmi.n	20d6 <__smakebuf_r+0x5a>
    208a:	f9b1 100e 	ldrsh.w	r1, [r1, #14]
    208e:	2900      	cmp	r1, #0
    2090:	da08      	bge.n	20a4 <__smakebuf_r+0x28>
    2092:	89a3      	ldrh	r3, [r4, #12]
    2094:	2500      	movs	r5, #0
    2096:	f013 0f80 	tst.w	r3, #128	; 0x80
    209a:	bf14      	ite	ne
    209c:	2740      	movne	r7, #64	; 0x40
    209e:	f44f 6780 	moveq.w	r7, #1024	; 0x400
    20a2:	e00d      	b.n	20c0 <__smakebuf_r+0x44>
    20a4:	aa01      	add	r2, sp, #4
    20a6:	f003 fa97 	bl	55d8 <_fstat_r>
    20aa:	2800      	cmp	r0, #0
    20ac:	dbf1      	blt.n	2092 <__smakebuf_r+0x16>
    20ae:	9d02      	ldr	r5, [sp, #8]
    20b0:	f44f 6780 	mov.w	r7, #1024	; 0x400
    20b4:	f405 4570 	and.w	r5, r5, #61440	; 0xf000
    20b8:	f5a5 5100 	sub.w	r1, r5, #8192	; 0x2000
    20bc:	424d      	negs	r5, r1
    20be:	414d      	adcs	r5, r1
    20c0:	4630      	mov	r0, r6
    20c2:	4639      	mov	r1, r7
    20c4:	f000 f89c 	bl	2200 <_malloc_r>
    20c8:	b960      	cbnz	r0, 20e4 <__smakebuf_r+0x68>
    20ca:	89a3      	ldrh	r3, [r4, #12]
    20cc:	059a      	lsls	r2, r3, #22
    20ce:	d41d      	bmi.n	210c <__smakebuf_r+0x90>
    20d0:	f043 0302 	orr.w	r3, r3, #2
    20d4:	81a3      	strh	r3, [r4, #12]
    20d6:	f104 0347 	add.w	r3, r4, #71	; 0x47
    20da:	6023      	str	r3, [r4, #0]
    20dc:	6123      	str	r3, [r4, #16]
    20de:	2301      	movs	r3, #1
    20e0:	6163      	str	r3, [r4, #20]
    20e2:	e013      	b.n	210c <__smakebuf_r+0x90>
    20e4:	4b0a      	ldr	r3, [pc, #40]	; (2110 <__smakebuf_r+0x94>)
    20e6:	62b3      	str	r3, [r6, #40]	; 0x28
    20e8:	89a3      	ldrh	r3, [r4, #12]
    20ea:	6020      	str	r0, [r4, #0]
    20ec:	f043 0380 	orr.w	r3, r3, #128	; 0x80
    20f0:	81a3      	strh	r3, [r4, #12]
    20f2:	6120      	str	r0, [r4, #16]
    20f4:	6167      	str	r7, [r4, #20]
    20f6:	b14d      	cbz	r5, 210c <__smakebuf_r+0x90>
    20f8:	4630      	mov	r0, r6
    20fa:	f9b4 100e 	ldrsh.w	r1, [r4, #14]
    20fe:	f003 fd89 	bl	5c14 <_isatty_r>
    2102:	b118      	cbz	r0, 210c <__smakebuf_r+0x90>
    2104:	89a3      	ldrh	r3, [r4, #12]
    2106:	f043 0301 	orr.w	r3, r3, #1
    210a:	81a3      	strh	r3, [r4, #12]
    210c:	b011      	add	sp, #68	; 0x44
    210e:	bdf0      	pop	{r4, r5, r6, r7, pc}
    2110:	00001cc9 	.word	0x00001cc9

00002114 <malloc>:
    2114:	4b02      	ldr	r3, [pc, #8]	; (2120 <malloc+0xc>)
    2116:	4601      	mov	r1, r0
    2118:	6818      	ldr	r0, [r3, #0]
    211a:	f000 b871 	b.w	2200 <_malloc_r>
    211e:	bf00      	nop
    2120:	10000134 	.word	0x10000134

00002124 <free>:
    2124:	4b02      	ldr	r3, [pc, #8]	; (2130 <free+0xc>)
    2126:	4601      	mov	r1, r0
    2128:	6818      	ldr	r0, [r3, #0]
    212a:	f000 b825 	b.w	2178 <_free_r>
    212e:	bf00      	nop
    2130:	10000134 	.word	0x10000134

00002134 <memchr>:
    2134:	b510      	push	{r4, lr}
    2136:	b2c9      	uxtb	r1, r1
    2138:	4402      	add	r2, r0
    213a:	4290      	cmp	r0, r2
    213c:	4603      	mov	r3, r0
    213e:	d005      	beq.n	214c <memchr+0x18>
    2140:	781c      	ldrb	r4, [r3, #0]
    2142:	3001      	adds	r0, #1
    2144:	428c      	cmp	r4, r1
    2146:	d1f8      	bne.n	213a <memchr+0x6>
    2148:	4618      	mov	r0, r3
    214a:	bd10      	pop	{r4, pc}
    214c:	2000      	movs	r0, #0
    214e:	bd10      	pop	{r4, pc}

00002150 <memcpy>:
    2150:	b510      	push	{r4, lr}
    2152:	1e43      	subs	r3, r0, #1
    2154:	440a      	add	r2, r1
    2156:	4291      	cmp	r1, r2
    2158:	d004      	beq.n	2164 <memcpy+0x14>
    215a:	f811 4b01 	ldrb.w	r4, [r1], #1
    215e:	f803 4f01 	strb.w	r4, [r3, #1]!
    2162:	e7f8      	b.n	2156 <memcpy+0x6>
    2164:	bd10      	pop	{r4, pc}

00002166 <memset>:
    2166:	4603      	mov	r3, r0
    2168:	4402      	add	r2, r0
    216a:	4293      	cmp	r3, r2
    216c:	d002      	beq.n	2174 <memset+0xe>
    216e:	f803 1b01 	strb.w	r1, [r3], #1
    2172:	e7fa      	b.n	216a <memset+0x4>
    2174:	4770      	bx	lr
	...

00002178 <_free_r>:
    2178:	b530      	push	{r4, r5, lr}
    217a:	2900      	cmp	r1, #0
    217c:	d03c      	beq.n	21f8 <_free_r+0x80>
    217e:	f851 2c04 	ldr.w	r2, [r1, #-4]
    2182:	1f0b      	subs	r3, r1, #4
    2184:	491d      	ldr	r1, [pc, #116]	; (21fc <_free_r+0x84>)
    2186:	2a00      	cmp	r2, #0
    2188:	bfb8      	it	lt
    218a:	189b      	addlt	r3, r3, r2
    218c:	680a      	ldr	r2, [r1, #0]
    218e:	460c      	mov	r4, r1
    2190:	b912      	cbnz	r2, 2198 <_free_r+0x20>
    2192:	605a      	str	r2, [r3, #4]
    2194:	600b      	str	r3, [r1, #0]
    2196:	bd30      	pop	{r4, r5, pc}
    2198:	4293      	cmp	r3, r2
    219a:	d20d      	bcs.n	21b8 <_free_r+0x40>
    219c:	6819      	ldr	r1, [r3, #0]
    219e:	1858      	adds	r0, r3, r1
    21a0:	4290      	cmp	r0, r2
    21a2:	bf01      	itttt	eq
    21a4:	585a      	ldreq	r2, [r3, r1]
    21a6:	1852      	addeq	r2, r2, r1
    21a8:	601a      	streq	r2, [r3, #0]
    21aa:	6842      	ldreq	r2, [r0, #4]
    21ac:	6023      	str	r3, [r4, #0]
    21ae:	605a      	str	r2, [r3, #4]
    21b0:	bd30      	pop	{r4, r5, pc}
    21b2:	4299      	cmp	r1, r3
    21b4:	d803      	bhi.n	21be <_free_r+0x46>
    21b6:	460a      	mov	r2, r1
    21b8:	6851      	ldr	r1, [r2, #4]
    21ba:	2900      	cmp	r1, #0
    21bc:	d1f9      	bne.n	21b2 <_free_r+0x3a>
    21be:	6814      	ldr	r4, [r2, #0]
    21c0:	1915      	adds	r5, r2, r4
    21c2:	429d      	cmp	r5, r3
    21c4:	d10a      	bne.n	21dc <_free_r+0x64>
    21c6:	681b      	ldr	r3, [r3, #0]
    21c8:	4423      	add	r3, r4
    21ca:	18d0      	adds	r0, r2, r3
    21cc:	4288      	cmp	r0, r1
    21ce:	6013      	str	r3, [r2, #0]
    21d0:	d112      	bne.n	21f8 <_free_r+0x80>
    21d2:	6808      	ldr	r0, [r1, #0]
    21d4:	4403      	add	r3, r0
    21d6:	6013      	str	r3, [r2, #0]
    21d8:	684b      	ldr	r3, [r1, #4]
    21da:	e00c      	b.n	21f6 <_free_r+0x7e>
    21dc:	d902      	bls.n	21e4 <_free_r+0x6c>
    21de:	230c      	movs	r3, #12
    21e0:	6003      	str	r3, [r0, #0]
    21e2:	bd30      	pop	{r4, r5, pc}
    21e4:	681c      	ldr	r4, [r3, #0]
    21e6:	1918      	adds	r0, r3, r4
    21e8:	4288      	cmp	r0, r1
    21ea:	bf01      	itttt	eq
    21ec:	6808      	ldreq	r0, [r1, #0]
    21ee:	6849      	ldreq	r1, [r1, #4]
    21f0:	1900      	addeq	r0, r0, r4
    21f2:	6018      	streq	r0, [r3, #0]
    21f4:	6059      	str	r1, [r3, #4]
    21f6:	6053      	str	r3, [r2, #4]
    21f8:	bd30      	pop	{r4, r5, pc}
    21fa:	bf00      	nop
    21fc:	100007f8 	.word	0x100007f8

00002200 <_malloc_r>:
    2200:	b570      	push	{r4, r5, r6, lr}
    2202:	1ccc      	adds	r4, r1, #3
    2204:	f024 0403 	bic.w	r4, r4, #3
    2208:	3408      	adds	r4, #8
    220a:	2c0c      	cmp	r4, #12
    220c:	bf38      	it	cc
    220e:	240c      	movcc	r4, #12
    2210:	2c00      	cmp	r4, #0
    2212:	4606      	mov	r6, r0
    2214:	da03      	bge.n	221e <_malloc_r+0x1e>
    2216:	230c      	movs	r3, #12
    2218:	6033      	str	r3, [r6, #0]
    221a:	2000      	movs	r0, #0
    221c:	bd70      	pop	{r4, r5, r6, pc}
    221e:	428c      	cmp	r4, r1
    2220:	d3f9      	bcc.n	2216 <_malloc_r+0x16>
    2222:	4a20      	ldr	r2, [pc, #128]	; (22a4 <_malloc_r+0xa4>)
    2224:	6813      	ldr	r3, [r2, #0]
    2226:	4610      	mov	r0, r2
    2228:	4619      	mov	r1, r3
    222a:	b1a1      	cbz	r1, 2256 <_malloc_r+0x56>
    222c:	680a      	ldr	r2, [r1, #0]
    222e:	1b12      	subs	r2, r2, r4
    2230:	d40e      	bmi.n	2250 <_malloc_r+0x50>
    2232:	2a0b      	cmp	r2, #11
    2234:	d903      	bls.n	223e <_malloc_r+0x3e>
    2236:	600a      	str	r2, [r1, #0]
    2238:	188b      	adds	r3, r1, r2
    223a:	508c      	str	r4, [r1, r2]
    223c:	e01f      	b.n	227e <_malloc_r+0x7e>
    223e:	428b      	cmp	r3, r1
    2240:	bf0b      	itete	eq
    2242:	685a      	ldreq	r2, [r3, #4]
    2244:	684a      	ldrne	r2, [r1, #4]
    2246:	6002      	streq	r2, [r0, #0]
    2248:	605a      	strne	r2, [r3, #4]
    224a:	bf18      	it	ne
    224c:	460b      	movne	r3, r1
    224e:	e016      	b.n	227e <_malloc_r+0x7e>
    2250:	460b      	mov	r3, r1
    2252:	6849      	ldr	r1, [r1, #4]
    2254:	e7e9      	b.n	222a <_malloc_r+0x2a>
    2256:	4d14      	ldr	r5, [pc, #80]	; (22a8 <_malloc_r+0xa8>)
    2258:	682b      	ldr	r3, [r5, #0]
    225a:	b91b      	cbnz	r3, 2264 <_malloc_r+0x64>
    225c:	4630      	mov	r0, r6
    225e:	f001 f937 	bl	34d0 <_sbrk_r>
    2262:	6028      	str	r0, [r5, #0]
    2264:	4630      	mov	r0, r6
    2266:	4621      	mov	r1, r4
    2268:	f001 f932 	bl	34d0 <_sbrk_r>
    226c:	1c42      	adds	r2, r0, #1
    226e:	4603      	mov	r3, r0
    2270:	d0d1      	beq.n	2216 <_malloc_r+0x16>
    2272:	1cc5      	adds	r5, r0, #3
    2274:	f025 0503 	bic.w	r5, r5, #3
    2278:	4285      	cmp	r5, r0
    227a:	d10a      	bne.n	2292 <_malloc_r+0x92>
    227c:	601c      	str	r4, [r3, #0]
    227e:	f103 000b 	add.w	r0, r3, #11
    2282:	1d1a      	adds	r2, r3, #4
    2284:	f020 0007 	bic.w	r0, r0, #7
    2288:	1a82      	subs	r2, r0, r2
    228a:	d00a      	beq.n	22a2 <_malloc_r+0xa2>
    228c:	4251      	negs	r1, r2
    228e:	5099      	str	r1, [r3, r2]
    2290:	bd70      	pop	{r4, r5, r6, pc}
    2292:	4630      	mov	r0, r6
    2294:	1ae9      	subs	r1, r5, r3
    2296:	f001 f91b 	bl	34d0 <_sbrk_r>
    229a:	3001      	adds	r0, #1
    229c:	d0bb      	beq.n	2216 <_malloc_r+0x16>
    229e:	462b      	mov	r3, r5
    22a0:	e7ec      	b.n	227c <_malloc_r+0x7c>
    22a2:	bd70      	pop	{r4, r5, r6, pc}
    22a4:	100007f8 	.word	0x100007f8
    22a8:	100007f4 	.word	0x100007f4

000022ac <__sfputc_r>:
    22ac:	6893      	ldr	r3, [r2, #8]
    22ae:	b510      	push	{r4, lr}
    22b0:	3b01      	subs	r3, #1
    22b2:	2b00      	cmp	r3, #0
    22b4:	6093      	str	r3, [r2, #8]
    22b6:	da09      	bge.n	22cc <__sfputc_r+0x20>
    22b8:	6994      	ldr	r4, [r2, #24]
    22ba:	42a3      	cmp	r3, r4
    22bc:	db02      	blt.n	22c4 <__sfputc_r+0x18>
    22be:	b2cb      	uxtb	r3, r1
    22c0:	2b0a      	cmp	r3, #10
    22c2:	d103      	bne.n	22cc <__sfputc_r+0x20>
    22c4:	e8bd 4010 	ldmia.w	sp!, {r4, lr}
    22c8:	f002 ba26 	b.w	4718 <__swbuf_r>
    22cc:	6813      	ldr	r3, [r2, #0]
    22ce:	1c58      	adds	r0, r3, #1
    22d0:	6010      	str	r0, [r2, #0]
    22d2:	7019      	strb	r1, [r3, #0]
    22d4:	b2c8      	uxtb	r0, r1
    22d6:	bd10      	pop	{r4, pc}

000022d8 <__sfputs_r>:
    22d8:	b5f8      	push	{r3, r4, r5, r6, r7, lr}
    22da:	4606      	mov	r6, r0
    22dc:	460f      	mov	r7, r1
    22de:	4614      	mov	r4, r2
    22e0:	18d5      	adds	r5, r2, r3
    22e2:	42ac      	cmp	r4, r5
    22e4:	d008      	beq.n	22f8 <__sfputs_r+0x20>
    22e6:	4630      	mov	r0, r6
    22e8:	f814 1b01 	ldrb.w	r1, [r4], #1
    22ec:	463a      	mov	r2, r7
    22ee:	f7ff ffdd 	bl	22ac <__sfputc_r>
    22f2:	1c43      	adds	r3, r0, #1
    22f4:	d1f5      	bne.n	22e2 <__sfputs_r+0xa>
    22f6:	e000      	b.n	22fa <__sfputs_r+0x22>
    22f8:	2000      	movs	r0, #0
    22fa:	bdf8      	pop	{r3, r4, r5, r6, r7, pc}

000022fc <_vfiprintf_r>:
    22fc:	e92d 43f0 	stmdb	sp!, {r4, r5, r6, r7, r8, r9, lr}
    2300:	b09d      	sub	sp, #116	; 0x74
    2302:	460d      	mov	r5, r1
    2304:	4690      	mov	r8, r2
    2306:	9303      	str	r3, [sp, #12]
    2308:	4606      	mov	r6, r0
    230a:	b118      	cbz	r0, 2314 <_vfiprintf_r+0x18>
    230c:	6983      	ldr	r3, [r0, #24]
    230e:	b90b      	cbnz	r3, 2314 <_vfiprintf_r+0x18>
    2310:	f7ff fd1a 	bl	1d48 <__sinit>
    2314:	4b75      	ldr	r3, [pc, #468]	; (24ec <_vfiprintf_r+0x1f0>)
    2316:	429d      	cmp	r5, r3
    2318:	d101      	bne.n	231e <_vfiprintf_r+0x22>
    231a:	6875      	ldr	r5, [r6, #4]
    231c:	e008      	b.n	2330 <_vfiprintf_r+0x34>
    231e:	4b74      	ldr	r3, [pc, #464]	; (24f0 <_vfiprintf_r+0x1f4>)
    2320:	429d      	cmp	r5, r3
    2322:	d101      	bne.n	2328 <_vfiprintf_r+0x2c>
    2324:	68b5      	ldr	r5, [r6, #8]
    2326:	e003      	b.n	2330 <_vfiprintf_r+0x34>
    2328:	4b72      	ldr	r3, [pc, #456]	; (24f4 <_vfiprintf_r+0x1f8>)
    232a:	429d      	cmp	r5, r3
    232c:	bf08      	it	eq
    232e:	68f5      	ldreq	r5, [r6, #12]
    2330:	89ab      	ldrh	r3, [r5, #12]
    2332:	071c      	lsls	r4, r3, #28
    2334:	d50a      	bpl.n	234c <_vfiprintf_r+0x50>
    2336:	692b      	ldr	r3, [r5, #16]
    2338:	b143      	cbz	r3, 234c <_vfiprintf_r+0x50>
    233a:	2300      	movs	r3, #0
    233c:	9309      	str	r3, [sp, #36]	; 0x24
    233e:	2320      	movs	r3, #32
    2340:	f88d 3029 	strb.w	r3, [sp, #41]	; 0x29
    2344:	2330      	movs	r3, #48	; 0x30
    2346:	f88d 302a 	strb.w	r3, [sp, #42]	; 0x2a
    234a:	e041      	b.n	23d0 <_vfiprintf_r+0xd4>
    234c:	4630      	mov	r0, r6
    234e:	4629      	mov	r1, r5
    2350:	f002 fa48 	bl	47e4 <__swsetup_r>
    2354:	2800      	cmp	r0, #0
    2356:	d0f0      	beq.n	233a <_vfiprintf_r+0x3e>
    2358:	f04f 30ff 	mov.w	r0, #4294967295
    235c:	e0c2      	b.n	24e4 <_vfiprintf_r+0x1e8>
    235e:	9a03      	ldr	r2, [sp, #12]
    2360:	3401      	adds	r4, #1
    2362:	1d11      	adds	r1, r2, #4
    2364:	6812      	ldr	r2, [r2, #0]
    2366:	9103      	str	r1, [sp, #12]
    2368:	2a00      	cmp	r2, #0
    236a:	bfbb      	ittet	lt
    236c:	4252      	neglt	r2, r2
    236e:	f043 0302 	orrlt.w	r3, r3, #2
    2372:	9207      	strge	r2, [sp, #28]
    2374:	9207      	strlt	r2, [sp, #28]
    2376:	bfb8      	it	lt
    2378:	9304      	strlt	r3, [sp, #16]
    237a:	7823      	ldrb	r3, [r4, #0]
    237c:	2b2e      	cmp	r3, #46	; 0x2e
    237e:	d07b      	beq.n	2478 <_vfiprintf_r+0x17c>
    2380:	f8df 8180 	ldr.w	r8, [pc, #384]	; 2504 <_vfiprintf_r+0x208>
    2384:	7821      	ldrb	r1, [r4, #0]
    2386:	4640      	mov	r0, r8
    2388:	2203      	movs	r2, #3
    238a:	f7ff fed3 	bl	2134 <memchr>
    238e:	b138      	cbz	r0, 23a0 <_vfiprintf_r+0xa4>
    2390:	9a04      	ldr	r2, [sp, #16]
    2392:	ebc8 0000 	rsb	r0, r8, r0
    2396:	2340      	movs	r3, #64	; 0x40
    2398:	4083      	lsls	r3, r0
    239a:	4313      	orrs	r3, r2
    239c:	9304      	str	r3, [sp, #16]
    239e:	3401      	adds	r4, #1
    23a0:	7821      	ldrb	r1, [r4, #0]
    23a2:	4855      	ldr	r0, [pc, #340]	; (24f8 <_vfiprintf_r+0x1fc>)
    23a4:	2206      	movs	r2, #6
    23a6:	f104 0801 	add.w	r8, r4, #1
    23aa:	f88d 1028 	strb.w	r1, [sp, #40]	; 0x28
    23ae:	f7ff fec1 	bl	2134 <memchr>
    23b2:	2800      	cmp	r0, #0
    23b4:	f000 8085 	beq.w	24c2 <_vfiprintf_r+0x1c6>
    23b8:	4b50      	ldr	r3, [pc, #320]	; (24fc <_vfiprintf_r+0x200>)
    23ba:	2b00      	cmp	r3, #0
    23bc:	d178      	bne.n	24b0 <_vfiprintf_r+0x1b4>
    23be:	9b03      	ldr	r3, [sp, #12]
    23c0:	3307      	adds	r3, #7
    23c2:	f023 0307 	bic.w	r3, r3, #7
    23c6:	3308      	adds	r3, #8
    23c8:	9303      	str	r3, [sp, #12]
    23ca:	9b09      	ldr	r3, [sp, #36]	; 0x24
    23cc:	443b      	add	r3, r7
    23ce:	9309      	str	r3, [sp, #36]	; 0x24
    23d0:	4643      	mov	r3, r8
    23d2:	461c      	mov	r4, r3
    23d4:	f813 2b01 	ldrb.w	r2, [r3], #1
    23d8:	b91a      	cbnz	r2, 23e2 <_vfiprintf_r+0xe6>
    23da:	ebb4 0908 	subs.w	r9, r4, r8
    23de:	d00e      	beq.n	23fe <_vfiprintf_r+0x102>
    23e0:	e002      	b.n	23e8 <_vfiprintf_r+0xec>
    23e2:	2a25      	cmp	r2, #37	; 0x25
    23e4:	d1f5      	bne.n	23d2 <_vfiprintf_r+0xd6>
    23e6:	e7f8      	b.n	23da <_vfiprintf_r+0xde>
    23e8:	4630      	mov	r0, r6
    23ea:	4629      	mov	r1, r5
    23ec:	4642      	mov	r2, r8
    23ee:	464b      	mov	r3, r9
    23f0:	f7ff ff72 	bl	22d8 <__sfputs_r>
    23f4:	3001      	adds	r0, #1
    23f6:	d070      	beq.n	24da <_vfiprintf_r+0x1de>
    23f8:	9b09      	ldr	r3, [sp, #36]	; 0x24
    23fa:	444b      	add	r3, r9
    23fc:	9309      	str	r3, [sp, #36]	; 0x24
    23fe:	7823      	ldrb	r3, [r4, #0]
    2400:	2b00      	cmp	r3, #0
    2402:	d06a      	beq.n	24da <_vfiprintf_r+0x1de>
    2404:	2300      	movs	r3, #0
    2406:	f04f 32ff 	mov.w	r2, #4294967295
    240a:	9304      	str	r3, [sp, #16]
    240c:	9307      	str	r3, [sp, #28]
    240e:	9205      	str	r2, [sp, #20]
    2410:	9306      	str	r3, [sp, #24]
    2412:	f88d 3053 	strb.w	r3, [sp, #83]	; 0x53
    2416:	931a      	str	r3, [sp, #104]	; 0x68
    2418:	f104 0801 	add.w	r8, r4, #1
    241c:	4644      	mov	r4, r8
    241e:	f8df 90e8 	ldr.w	r9, [pc, #232]	; 2508 <_vfiprintf_r+0x20c>
    2422:	7821      	ldrb	r1, [r4, #0]
    2424:	4648      	mov	r0, r9
    2426:	2205      	movs	r2, #5
    2428:	f7ff fe84 	bl	2134 <memchr>
    242c:	f108 0801 	add.w	r8, r8, #1
    2430:	9b04      	ldr	r3, [sp, #16]
    2432:	b130      	cbz	r0, 2442 <_vfiprintf_r+0x146>
    2434:	ebc9 0000 	rsb	r0, r9, r0
    2438:	2201      	movs	r2, #1
    243a:	4082      	lsls	r2, r0
    243c:	4313      	orrs	r3, r2
    243e:	9304      	str	r3, [sp, #16]
    2440:	e7ec      	b.n	241c <_vfiprintf_r+0x120>
    2442:	06d8      	lsls	r0, r3, #27
    2444:	bf44      	itt	mi
    2446:	2220      	movmi	r2, #32
    2448:	f88d 2053 	strbmi.w	r2, [sp, #83]	; 0x53
    244c:	0719      	lsls	r1, r3, #28
    244e:	bf44      	itt	mi
    2450:	222b      	movmi	r2, #43	; 0x2b
    2452:	f88d 2053 	strbmi.w	r2, [sp, #83]	; 0x53
    2456:	7822      	ldrb	r2, [r4, #0]
    2458:	2a2a      	cmp	r2, #42	; 0x2a
    245a:	d080      	beq.n	235e <_vfiprintf_r+0x62>
    245c:	4623      	mov	r3, r4
    245e:	9907      	ldr	r1, [sp, #28]
    2460:	461c      	mov	r4, r3
    2462:	7822      	ldrb	r2, [r4, #0]
    2464:	3301      	adds	r3, #1
    2466:	3a30      	subs	r2, #48	; 0x30
    2468:	2a09      	cmp	r2, #9
    246a:	d803      	bhi.n	2474 <_vfiprintf_r+0x178>
    246c:	200a      	movs	r0, #10
    246e:	fb00 2101 	mla	r1, r0, r1, r2
    2472:	e7f5      	b.n	2460 <_vfiprintf_r+0x164>
    2474:	9107      	str	r1, [sp, #28]
    2476:	e780      	b.n	237a <_vfiprintf_r+0x7e>
    2478:	7863      	ldrb	r3, [r4, #1]
    247a:	2b2a      	cmp	r3, #42	; 0x2a
    247c:	d10a      	bne.n	2494 <_vfiprintf_r+0x198>
    247e:	9b03      	ldr	r3, [sp, #12]
    2480:	3402      	adds	r4, #2
    2482:	1d1a      	adds	r2, r3, #4
    2484:	681b      	ldr	r3, [r3, #0]
    2486:	9203      	str	r2, [sp, #12]
    2488:	2b00      	cmp	r3, #0
    248a:	bfb8      	it	lt
    248c:	f04f 33ff 	movlt.w	r3, #4294967295
    2490:	9305      	str	r3, [sp, #20]
    2492:	e775      	b.n	2380 <_vfiprintf_r+0x84>
    2494:	1c61      	adds	r1, r4, #1
    2496:	2200      	movs	r2, #0
    2498:	460c      	mov	r4, r1
    249a:	7823      	ldrb	r3, [r4, #0]
    249c:	3101      	adds	r1, #1
    249e:	3b30      	subs	r3, #48	; 0x30
    24a0:	2b09      	cmp	r3, #9
    24a2:	d803      	bhi.n	24ac <_vfiprintf_r+0x1b0>
    24a4:	200a      	movs	r0, #10
    24a6:	fb00 3202 	mla	r2, r0, r2, r3
    24aa:	e7f5      	b.n	2498 <_vfiprintf_r+0x19c>
    24ac:	9205      	str	r2, [sp, #20]
    24ae:	e767      	b.n	2380 <_vfiprintf_r+0x84>
    24b0:	ab03      	add	r3, sp, #12
    24b2:	9300      	str	r3, [sp, #0]
    24b4:	4630      	mov	r0, r6
    24b6:	a904      	add	r1, sp, #16
    24b8:	462a      	mov	r2, r5
    24ba:	4b11      	ldr	r3, [pc, #68]	; (2500 <_vfiprintf_r+0x204>)
    24bc:	f000 f8c4 	bl	2648 <_printf_float>
    24c0:	e007      	b.n	24d2 <_vfiprintf_r+0x1d6>
    24c2:	ab03      	add	r3, sp, #12
    24c4:	9300      	str	r3, [sp, #0]
    24c6:	4630      	mov	r0, r6
    24c8:	a904      	add	r1, sp, #16
    24ca:	462a      	mov	r2, r5
    24cc:	4b0c      	ldr	r3, [pc, #48]	; (2500 <_vfiprintf_r+0x204>)
    24ce:	f000 fb75 	bl	2bbc <_printf_i>
    24d2:	1c42      	adds	r2, r0, #1
    24d4:	4607      	mov	r7, r0
    24d6:	f47f af78 	bne.w	23ca <_vfiprintf_r+0xce>
    24da:	89ab      	ldrh	r3, [r5, #12]
    24dc:	065b      	lsls	r3, r3, #25
    24de:	f53f af3b 	bmi.w	2358 <_vfiprintf_r+0x5c>
    24e2:	9809      	ldr	r0, [sp, #36]	; 0x24
    24e4:	b01d      	add	sp, #116	; 0x74
    24e6:	e8bd 83f0 	ldmia.w	sp!, {r4, r5, r6, r7, r8, r9, pc}
    24ea:	bf00      	nop
    24ec:	00007b68 	.word	0x00007b68
    24f0:	00007b88 	.word	0x00007b88
    24f4:	00007ba8 	.word	0x00007ba8
    24f8:	00007bda 	.word	0x00007bda
    24fc:	00002649 	.word	0x00002649
    2500:	000022d9 	.word	0x000022d9
    2504:	00007bd6 	.word	0x00007bd6
    2508:	00007bd0 	.word	0x00007bd0

0000250c <vfiprintf>:
    250c:	b530      	push	{r4, r5, lr}
    250e:	4605      	mov	r5, r0
    2510:	460c      	mov	r4, r1
    2512:	4613      	mov	r3, r2
    2514:	4a03      	ldr	r2, [pc, #12]	; (2524 <vfiprintf+0x18>)
    2516:	4629      	mov	r1, r5
    2518:	6810      	ldr	r0, [r2, #0]
    251a:	4622      	mov	r2, r4
    251c:	e8bd 4030 	ldmia.w	sp!, {r4, r5, lr}
    2520:	f7ff beec 	b.w	22fc <_vfiprintf_r>
    2524:	10000134 	.word	0x10000134

00002528 <__cvt>:
    2528:	e92d 47f0 	stmdb	sp!, {r4, r5, r6, r7, r8, r9, sl, lr}
    252c:	461e      	mov	r6, r3
    252e:	b088      	sub	sp, #32
    2530:	9f14      	ldr	r7, [sp, #80]	; 0x50
    2532:	2b00      	cmp	r3, #0
    2534:	bfb8      	it	lt
    2536:	f106 4300 	addlt.w	r3, r6, #2147483648	; 0x80000000
    253a:	9912      	ldr	r1, [sp, #72]	; 0x48
    253c:	f027 0720 	bic.w	r7, r7, #32
    2540:	bfb6      	itet	lt
    2542:	461e      	movlt	r6, r3
    2544:	2300      	movge	r3, #0
    2546:	232d      	movlt	r3, #45	; 0x2d
    2548:	2f46      	cmp	r7, #70	; 0x46
    254a:	4614      	mov	r4, r2
    254c:	9d10      	ldr	r5, [sp, #64]	; 0x40
    254e:	f8dd a04c 	ldr.w	sl, [sp, #76]	; 0x4c
    2552:	700b      	strb	r3, [r1, #0]
    2554:	d003      	beq.n	255e <__cvt+0x36>
    2556:	2f45      	cmp	r7, #69	; 0x45
    2558:	d103      	bne.n	2562 <__cvt+0x3a>
    255a:	3501      	adds	r5, #1
    255c:	e001      	b.n	2562 <__cvt+0x3a>
    255e:	2303      	movs	r3, #3
    2560:	e000      	b.n	2564 <__cvt+0x3c>
    2562:	2302      	movs	r3, #2
    2564:	e88d 0428 	stmia.w	sp, {r3, r5, sl}
    2568:	ab06      	add	r3, sp, #24
    256a:	9303      	str	r3, [sp, #12]
    256c:	ab07      	add	r3, sp, #28
    256e:	9304      	str	r3, [sp, #16]
    2570:	4622      	mov	r2, r4
    2572:	4633      	mov	r3, r6
    2574:	f002 fa3c 	bl	49f0 <_dtoa_r>
    2578:	2f47      	cmp	r7, #71	; 0x47
    257a:	4680      	mov	r8, r0
    257c:	d102      	bne.n	2584 <__cvt+0x5c>
    257e:	9b11      	ldr	r3, [sp, #68]	; 0x44
    2580:	07db      	lsls	r3, r3, #31
    2582:	d526      	bpl.n	25d2 <__cvt+0xaa>
    2584:	2f46      	cmp	r7, #70	; 0x46
    2586:	eb08 0905 	add.w	r9, r8, r5
    258a:	d111      	bne.n	25b0 <__cvt+0x88>
    258c:	f898 3000 	ldrb.w	r3, [r8]
    2590:	2b30      	cmp	r3, #48	; 0x30
    2592:	d10a      	bne.n	25aa <__cvt+0x82>
    2594:	4620      	mov	r0, r4
    2596:	4631      	mov	r1, r6
    2598:	2200      	movs	r2, #0
    259a:	2300      	movs	r3, #0
    259c:	f004 fed4 	bl	7348 <__aeabi_dcmpeq>
    25a0:	b918      	cbnz	r0, 25aa <__cvt+0x82>
    25a2:	f1c5 0501 	rsb	r5, r5, #1
    25a6:	f8ca 5000 	str.w	r5, [sl]
    25aa:	f8da 3000 	ldr.w	r3, [sl]
    25ae:	4499      	add	r9, r3
    25b0:	4620      	mov	r0, r4
    25b2:	4631      	mov	r1, r6
    25b4:	2200      	movs	r2, #0
    25b6:	2300      	movs	r3, #0
    25b8:	f004 fec6 	bl	7348 <__aeabi_dcmpeq>
    25bc:	b108      	cbz	r0, 25c2 <__cvt+0x9a>
    25be:	f8cd 901c 	str.w	r9, [sp, #28]
    25c2:	9b07      	ldr	r3, [sp, #28]
    25c4:	454b      	cmp	r3, r9
    25c6:	d204      	bcs.n	25d2 <__cvt+0xaa>
    25c8:	1c5a      	adds	r2, r3, #1
    25ca:	9207      	str	r2, [sp, #28]
    25cc:	2230      	movs	r2, #48	; 0x30
    25ce:	701a      	strb	r2, [r3, #0]
    25d0:	e7f7      	b.n	25c2 <__cvt+0x9a>
    25d2:	4640      	mov	r0, r8
    25d4:	9b07      	ldr	r3, [sp, #28]
    25d6:	9a15      	ldr	r2, [sp, #84]	; 0x54
    25d8:	ebc8 0303 	rsb	r3, r8, r3
    25dc:	6013      	str	r3, [r2, #0]
    25de:	b008      	add	sp, #32
    25e0:	e8bd 87f0 	ldmia.w	sp!, {r4, r5, r6, r7, r8, r9, sl, pc}

000025e4 <__exponent>:
    25e4:	4603      	mov	r3, r0
    25e6:	b573      	push	{r0, r1, r4, r5, r6, lr}
    25e8:	2900      	cmp	r1, #0
    25ea:	bfb8      	it	lt
    25ec:	4249      	neglt	r1, r1
    25ee:	f803 2b02 	strb.w	r2, [r3], #2
    25f2:	bfb4      	ite	lt
    25f4:	222d      	movlt	r2, #45	; 0x2d
    25f6:	222b      	movge	r2, #43	; 0x2b
    25f8:	2909      	cmp	r1, #9
    25fa:	7042      	strb	r2, [r0, #1]
    25fc:	dd1a      	ble.n	2634 <__exponent+0x50>
    25fe:	f10d 0407 	add.w	r4, sp, #7
    2602:	4626      	mov	r6, r4
    2604:	220a      	movs	r2, #10
    2606:	fb91 f5f2 	sdiv	r5, r1, r2
    260a:	fb02 1115 	mls	r1, r2, r5, r1
    260e:	2d09      	cmp	r5, #9
    2610:	f101 0130 	add.w	r1, r1, #48	; 0x30
    2614:	f804 1d01 	strb.w	r1, [r4, #-1]!
    2618:	4629      	mov	r1, r5
    261a:	dcf3      	bgt.n	2604 <__exponent+0x20>
    261c:	3130      	adds	r1, #48	; 0x30
    261e:	1e65      	subs	r5, r4, #1
    2620:	f804 1c01 	strb.w	r1, [r4, #-1]
    2624:	42b5      	cmp	r5, r6
    2626:	461a      	mov	r2, r3
    2628:	d20a      	bcs.n	2640 <__exponent+0x5c>
    262a:	f815 2b01 	ldrb.w	r2, [r5], #1
    262e:	f803 2b01 	strb.w	r2, [r3], #1
    2632:	e7f7      	b.n	2624 <__exponent+0x40>
    2634:	461a      	mov	r2, r3
    2636:	2430      	movs	r4, #48	; 0x30
    2638:	4421      	add	r1, r4
    263a:	f802 4b02 	strb.w	r4, [r2], #2
    263e:	7059      	strb	r1, [r3, #1]
    2640:	1a10      	subs	r0, r2, r0
    2642:	b002      	add	sp, #8
    2644:	bd70      	pop	{r4, r5, r6, pc}
	...

00002648 <_printf_float>:
    2648:	e92d 4ff0 	stmdb	sp!, {r4, r5, r6, r7, r8, r9, sl, fp, lr}
    264c:	b091      	sub	sp, #68	; 0x44
    264e:	468b      	mov	fp, r1
    2650:	4615      	mov	r5, r2
    2652:	461e      	mov	r6, r3
    2654:	9f1a      	ldr	r7, [sp, #104]	; 0x68
    2656:	4604      	mov	r4, r0
    2658:	f003 faec 	bl	5c34 <_localeconv_r>
    265c:	f8d0 a000 	ldr.w	sl, [r0]
    2660:	4650      	mov	r0, sl
    2662:	f001 f8a8 	bl	37b6 <strlen>
    2666:	2300      	movs	r3, #0
    2668:	930e      	str	r3, [sp, #56]	; 0x38
    266a:	683b      	ldr	r3, [r7, #0]
    266c:	9009      	str	r0, [sp, #36]	; 0x24
    266e:	3307      	adds	r3, #7
    2670:	f023 0307 	bic.w	r3, r3, #7
    2674:	f103 0208 	add.w	r2, r3, #8
    2678:	e9d3 0100 	ldrd	r0, r1, [r3]
    267c:	f89b 8018 	ldrb.w	r8, [fp, #24]
    2680:	603a      	str	r2, [r7, #0]
    2682:	e9cb 0112 	strd	r0, r1, [fp, #72]	; 0x48
    2686:	f000 fefb 	bl	3480 <__fpclassifyd>
    268a:	2801      	cmp	r0, #1
    268c:	e9db 0112 	ldrd	r0, r1, [fp, #72]	; 0x48
    2690:	d119      	bne.n	26c6 <_printf_float+0x7e>
    2692:	2200      	movs	r2, #0
    2694:	2300      	movs	r3, #0
    2696:	f004 fe61 	bl	735c <__aeabi_dcmplt>
    269a:	b110      	cbz	r0, 26a2 <_printf_float+0x5a>
    269c:	232d      	movs	r3, #45	; 0x2d
    269e:	f88b 3043 	strb.w	r3, [fp, #67]	; 0x43
    26a2:	4ba0      	ldr	r3, [pc, #640]	; (2924 <_printf_float+0x2dc>)
    26a4:	4fa0      	ldr	r7, [pc, #640]	; (2928 <_printf_float+0x2e0>)
    26a6:	f1b8 0f47 	cmp.w	r8, #71	; 0x47
    26aa:	bf88      	it	hi
    26ac:	461f      	movhi	r7, r3
    26ae:	2303      	movs	r3, #3
    26b0:	f8cb 3010 	str.w	r3, [fp, #16]
    26b4:	f8db 3000 	ldr.w	r3, [fp]
    26b8:	f023 0304 	bic.w	r3, r3, #4
    26bc:	f8cb 3000 	str.w	r3, [fp]
    26c0:	f04f 0900 	mov.w	r9, #0
    26c4:	e0a1      	b.n	280a <_printf_float+0x1c2>
    26c6:	f000 fedb 	bl	3480 <__fpclassifyd>
    26ca:	f8db 3000 	ldr.w	r3, [fp]
    26ce:	b948      	cbnz	r0, 26e4 <_printf_float+0x9c>
    26d0:	4a96      	ldr	r2, [pc, #600]	; (292c <_printf_float+0x2e4>)
    26d2:	4f97      	ldr	r7, [pc, #604]	; (2930 <_printf_float+0x2e8>)
    26d4:	f1b8 0f47 	cmp.w	r8, #71	; 0x47
    26d8:	bf88      	it	hi
    26da:	4617      	movhi	r7, r2
    26dc:	2203      	movs	r2, #3
    26de:	f8cb 2010 	str.w	r2, [fp, #16]
    26e2:	e7e9      	b.n	26b8 <_printf_float+0x70>
    26e4:	f8db 2004 	ldr.w	r2, [fp, #4]
    26e8:	e9db 0112 	ldrd	r0, r1, [fp, #72]	; 0x48
    26ec:	1c57      	adds	r7, r2, #1
    26ee:	e9cd 010a 	strd	r0, r1, [sp, #40]	; 0x28
    26f2:	d101      	bne.n	26f8 <_printf_float+0xb0>
    26f4:	2206      	movs	r2, #6
    26f6:	e009      	b.n	270c <_printf_float+0xc4>
    26f8:	f1b8 0f67 	cmp.w	r8, #103	; 0x67
    26fc:	d002      	beq.n	2704 <_printf_float+0xbc>
    26fe:	f1b8 0f47 	cmp.w	r8, #71	; 0x47
    2702:	d105      	bne.n	2710 <_printf_float+0xc8>
    2704:	2a00      	cmp	r2, #0
    2706:	f040 81c7 	bne.w	2a98 <_printf_float+0x450>
    270a:	2201      	movs	r2, #1
    270c:	f8cb 2004 	str.w	r2, [fp, #4]
    2710:	f8db 2004 	ldr.w	r2, [fp, #4]
    2714:	f443 6380 	orr.w	r3, r3, #1024	; 0x400
    2718:	e88d 000c 	stmia.w	sp, {r2, r3}
    271c:	f8cb 3000 	str.w	r3, [fp]
    2720:	f10d 0333 	add.w	r3, sp, #51	; 0x33
    2724:	9302      	str	r3, [sp, #8]
    2726:	ab0d      	add	r3, sp, #52	; 0x34
    2728:	9303      	str	r3, [sp, #12]
    272a:	ab0e      	add	r3, sp, #56	; 0x38
    272c:	9305      	str	r3, [sp, #20]
    272e:	2300      	movs	r3, #0
    2730:	9306      	str	r3, [sp, #24]
    2732:	f8cd 8010 	str.w	r8, [sp, #16]
    2736:	e9dd 230a 	ldrd	r2, r3, [sp, #40]	; 0x28
    273a:	4620      	mov	r0, r4
    273c:	f7ff fef4 	bl	2528 <__cvt>
    2740:	f008 03df 	and.w	r3, r8, #223	; 0xdf
    2744:	2b47      	cmp	r3, #71	; 0x47
    2746:	4607      	mov	r7, r0
    2748:	d10a      	bne.n	2760 <_printf_float+0x118>
    274a:	9b0d      	ldr	r3, [sp, #52]	; 0x34
    274c:	1cd8      	adds	r0, r3, #3
    274e:	db03      	blt.n	2758 <_printf_float+0x110>
    2750:	f8db 2004 	ldr.w	r2, [fp, #4]
    2754:	4293      	cmp	r3, r2
    2756:	dd37      	ble.n	27c8 <_printf_float+0x180>
    2758:	f1a8 0802 	sub.w	r8, r8, #2
    275c:	fa5f f888 	uxtb.w	r8, r8
    2760:	f1b8 0f65 	cmp.w	r8, #101	; 0x65
    2764:	990d      	ldr	r1, [sp, #52]	; 0x34
    2766:	d815      	bhi.n	2794 <_printf_float+0x14c>
    2768:	3901      	subs	r1, #1
    276a:	4642      	mov	r2, r8
    276c:	f10b 0050 	add.w	r0, fp, #80	; 0x50
    2770:	910d      	str	r1, [sp, #52]	; 0x34
    2772:	f7ff ff37 	bl	25e4 <__exponent>
    2776:	9a0e      	ldr	r2, [sp, #56]	; 0x38
    2778:	4681      	mov	r9, r0
    277a:	1883      	adds	r3, r0, r2
    277c:	2a01      	cmp	r2, #1
    277e:	f8cb 3010 	str.w	r3, [fp, #16]
    2782:	dc03      	bgt.n	278c <_printf_float+0x144>
    2784:	f8db 2000 	ldr.w	r2, [fp]
    2788:	07d1      	lsls	r1, r2, #31
    278a:	d538      	bpl.n	27fe <_printf_float+0x1b6>
    278c:	3301      	adds	r3, #1
    278e:	f8cb 3010 	str.w	r3, [fp, #16]
    2792:	e034      	b.n	27fe <_printf_float+0x1b6>
    2794:	f1b8 0f66 	cmp.w	r8, #102	; 0x66
    2798:	d118      	bne.n	27cc <_printf_float+0x184>
    279a:	2900      	cmp	r1, #0
    279c:	f8db 3004 	ldr.w	r3, [fp, #4]
    27a0:	dd09      	ble.n	27b6 <_printf_float+0x16e>
    27a2:	f8cb 1010 	str.w	r1, [fp, #16]
    27a6:	b91b      	cbnz	r3, 27b0 <_printf_float+0x168>
    27a8:	f8db 2000 	ldr.w	r2, [fp]
    27ac:	07d2      	lsls	r2, r2, #31
    27ae:	d521      	bpl.n	27f4 <_printf_float+0x1ac>
    27b0:	3301      	adds	r3, #1
    27b2:	440b      	add	r3, r1
    27b4:	e01c      	b.n	27f0 <_printf_float+0x1a8>
    27b6:	b91b      	cbnz	r3, 27c0 <_printf_float+0x178>
    27b8:	f8db 2000 	ldr.w	r2, [fp]
    27bc:	07d0      	lsls	r0, r2, #31
    27be:	d501      	bpl.n	27c4 <_printf_float+0x17c>
    27c0:	3302      	adds	r3, #2
    27c2:	e015      	b.n	27f0 <_printf_float+0x1a8>
    27c4:	2301      	movs	r3, #1
    27c6:	e013      	b.n	27f0 <_printf_float+0x1a8>
    27c8:	f04f 0867 	mov.w	r8, #103	; 0x67
    27cc:	9b0d      	ldr	r3, [sp, #52]	; 0x34
    27ce:	9a0e      	ldr	r2, [sp, #56]	; 0x38
    27d0:	4293      	cmp	r3, r2
    27d2:	db07      	blt.n	27e4 <_printf_float+0x19c>
    27d4:	f8db 2000 	ldr.w	r2, [fp]
    27d8:	f8cb 3010 	str.w	r3, [fp, #16]
    27dc:	07d1      	lsls	r1, r2, #31
    27de:	d509      	bpl.n	27f4 <_printf_float+0x1ac>
    27e0:	3301      	adds	r3, #1
    27e2:	e005      	b.n	27f0 <_printf_float+0x1a8>
    27e4:	2b00      	cmp	r3, #0
    27e6:	bfd4      	ite	le
    27e8:	f1c3 0302 	rsble	r3, r3, #2
    27ec:	2301      	movgt	r3, #1
    27ee:	4413      	add	r3, r2
    27f0:	f8cb 3010 	str.w	r3, [fp, #16]
    27f4:	9b0d      	ldr	r3, [sp, #52]	; 0x34
    27f6:	f04f 0900 	mov.w	r9, #0
    27fa:	f8cb 3058 	str.w	r3, [fp, #88]	; 0x58
    27fe:	f89d 3033 	ldrb.w	r3, [sp, #51]	; 0x33
    2802:	b113      	cbz	r3, 280a <_printf_float+0x1c2>
    2804:	232d      	movs	r3, #45	; 0x2d
    2806:	f88b 3043 	strb.w	r3, [fp, #67]	; 0x43
    280a:	9600      	str	r6, [sp, #0]
    280c:	4620      	mov	r0, r4
    280e:	4659      	mov	r1, fp
    2810:	aa0f      	add	r2, sp, #60	; 0x3c
    2812:	462b      	mov	r3, r5
    2814:	f000 f95c 	bl	2ad0 <_printf_common>
    2818:	3001      	adds	r0, #1
    281a:	d102      	bne.n	2822 <_printf_float+0x1da>
    281c:	f04f 30ff 	mov.w	r0, #4294967295
    2820:	e152      	b.n	2ac8 <_printf_float+0x480>
    2822:	f8db 3000 	ldr.w	r3, [fp]
    2826:	055a      	lsls	r2, r3, #21
    2828:	d405      	bmi.n	2836 <_printf_float+0x1ee>
    282a:	4620      	mov	r0, r4
    282c:	4629      	mov	r1, r5
    282e:	463a      	mov	r2, r7
    2830:	f8db 3010 	ldr.w	r3, [fp, #16]
    2834:	e108      	b.n	2a48 <_printf_float+0x400>
    2836:	f1b8 0f65 	cmp.w	r8, #101	; 0x65
    283a:	f240 80d0 	bls.w	29de <_printf_float+0x396>
    283e:	e9db 0112 	ldrd	r0, r1, [fp, #72]	; 0x48
    2842:	2200      	movs	r2, #0
    2844:	2300      	movs	r3, #0
    2846:	f004 fd7f 	bl	7348 <__aeabi_dcmpeq>
    284a:	b350      	cbz	r0, 28a2 <_printf_float+0x25a>
    284c:	4620      	mov	r0, r4
    284e:	4629      	mov	r1, r5
    2850:	4a38      	ldr	r2, [pc, #224]	; (2934 <_printf_float+0x2ec>)
    2852:	2301      	movs	r3, #1
    2854:	47b0      	blx	r6
    2856:	3001      	adds	r0, #1
    2858:	d0e0      	beq.n	281c <_printf_float+0x1d4>
    285a:	9b0e      	ldr	r3, [sp, #56]	; 0x38
    285c:	9a0d      	ldr	r2, [sp, #52]	; 0x34
    285e:	429a      	cmp	r2, r3
    2860:	db09      	blt.n	2876 <_printf_float+0x22e>
    2862:	f8db 3000 	ldr.w	r3, [fp]
    2866:	07d8      	lsls	r0, r3, #31
    2868:	d405      	bmi.n	2876 <_printf_float+0x22e>
    286a:	f8db 3000 	ldr.w	r3, [fp]
    286e:	079f      	lsls	r7, r3, #30
    2870:	f100 8110 	bmi.w	2a94 <_printf_float+0x44c>
    2874:	e107      	b.n	2a86 <_printf_float+0x43e>
    2876:	4620      	mov	r0, r4
    2878:	4629      	mov	r1, r5
    287a:	4652      	mov	r2, sl
    287c:	9b09      	ldr	r3, [sp, #36]	; 0x24
    287e:	47b0      	blx	r6
    2880:	3001      	adds	r0, #1
    2882:	d0cb      	beq.n	281c <_printf_float+0x1d4>
    2884:	2700      	movs	r7, #0
    2886:	9b0e      	ldr	r3, [sp, #56]	; 0x38
    2888:	3b01      	subs	r3, #1
    288a:	429f      	cmp	r7, r3
    288c:	daed      	bge.n	286a <_printf_float+0x222>
    288e:	4620      	mov	r0, r4
    2890:	4629      	mov	r1, r5
    2892:	f10b 021a 	add.w	r2, fp, #26
    2896:	2301      	movs	r3, #1
    2898:	47b0      	blx	r6
    289a:	3001      	adds	r0, #1
    289c:	d0be      	beq.n	281c <_printf_float+0x1d4>
    289e:	3701      	adds	r7, #1
    28a0:	e7f1      	b.n	2886 <_printf_float+0x23e>
    28a2:	9b0d      	ldr	r3, [sp, #52]	; 0x34
    28a4:	2b00      	cmp	r3, #0
    28a6:	dc29      	bgt.n	28fc <_printf_float+0x2b4>
    28a8:	4620      	mov	r0, r4
    28aa:	4629      	mov	r1, r5
    28ac:	4a21      	ldr	r2, [pc, #132]	; (2934 <_printf_float+0x2ec>)
    28ae:	2301      	movs	r3, #1
    28b0:	47b0      	blx	r6
    28b2:	3001      	adds	r0, #1
    28b4:	d0b2      	beq.n	281c <_printf_float+0x1d4>
    28b6:	9b0d      	ldr	r3, [sp, #52]	; 0x34
    28b8:	b92b      	cbnz	r3, 28c6 <_printf_float+0x27e>
    28ba:	9b0e      	ldr	r3, [sp, #56]	; 0x38
    28bc:	b91b      	cbnz	r3, 28c6 <_printf_float+0x27e>
    28be:	f8db 3000 	ldr.w	r3, [fp]
    28c2:	07d9      	lsls	r1, r3, #31
    28c4:	d5d1      	bpl.n	286a <_printf_float+0x222>
    28c6:	4620      	mov	r0, r4
    28c8:	4629      	mov	r1, r5
    28ca:	4652      	mov	r2, sl
    28cc:	9b09      	ldr	r3, [sp, #36]	; 0x24
    28ce:	47b0      	blx	r6
    28d0:	3001      	adds	r0, #1
    28d2:	d0a3      	beq.n	281c <_printf_float+0x1d4>
    28d4:	f04f 0800 	mov.w	r8, #0
    28d8:	9b0d      	ldr	r3, [sp, #52]	; 0x34
    28da:	4620      	mov	r0, r4
    28dc:	425b      	negs	r3, r3
    28de:	4598      	cmp	r8, r3
    28e0:	4629      	mov	r1, r5
    28e2:	da08      	bge.n	28f6 <_printf_float+0x2ae>
    28e4:	f10b 021a 	add.w	r2, fp, #26
    28e8:	2301      	movs	r3, #1
    28ea:	47b0      	blx	r6
    28ec:	3001      	adds	r0, #1
    28ee:	d095      	beq.n	281c <_printf_float+0x1d4>
    28f0:	f108 0801 	add.w	r8, r8, #1
    28f4:	e7f0      	b.n	28d8 <_printf_float+0x290>
    28f6:	463a      	mov	r2, r7
    28f8:	9b0e      	ldr	r3, [sp, #56]	; 0x38
    28fa:	e0a5      	b.n	2a48 <_printf_float+0x400>
    28fc:	f8db 2058 	ldr.w	r2, [fp, #88]	; 0x58
    2900:	9b0e      	ldr	r3, [sp, #56]	; 0x38
    2902:	429a      	cmp	r2, r3
    2904:	bfa8      	it	ge
    2906:	461a      	movge	r2, r3
    2908:	2a00      	cmp	r2, #0
    290a:	4691      	mov	r9, r2
    290c:	dc02      	bgt.n	2914 <_printf_float+0x2cc>
    290e:	f04f 0800 	mov.w	r8, #0
    2912:	e01c      	b.n	294e <_printf_float+0x306>
    2914:	4620      	mov	r0, r4
    2916:	4629      	mov	r1, r5
    2918:	463a      	mov	r2, r7
    291a:	464b      	mov	r3, r9
    291c:	47b0      	blx	r6
    291e:	3001      	adds	r0, #1
    2920:	d1f5      	bne.n	290e <_printf_float+0x2c6>
    2922:	e77b      	b.n	281c <_printf_float+0x1d4>
    2924:	00007be5 	.word	0x00007be5
    2928:	00007be1 	.word	0x00007be1
    292c:	00007bed 	.word	0x00007bed
    2930:	00007be9 	.word	0x00007be9
    2934:	00007c3a 	.word	0x00007c3a
    2938:	4620      	mov	r0, r4
    293a:	4629      	mov	r1, r5
    293c:	f10b 021a 	add.w	r2, fp, #26
    2940:	2301      	movs	r3, #1
    2942:	47b0      	blx	r6
    2944:	3001      	adds	r0, #1
    2946:	f43f af69 	beq.w	281c <_printf_float+0x1d4>
    294a:	f108 0801 	add.w	r8, r8, #1
    294e:	f8db 3058 	ldr.w	r3, [fp, #88]	; 0x58
    2952:	f1b9 0f00 	cmp.w	r9, #0
    2956:	bfb4      	ite	lt
    2958:	461a      	movlt	r2, r3
    295a:	ebc9 0203 	rsbge	r2, r9, r3
    295e:	4590      	cmp	r8, r2
    2960:	dbea      	blt.n	2938 <_printf_float+0x2f0>
    2962:	eb07 0803 	add.w	r8, r7, r3
    2966:	9a0d      	ldr	r2, [sp, #52]	; 0x34
    2968:	9b0e      	ldr	r3, [sp, #56]	; 0x38
    296a:	429a      	cmp	r2, r3
    296c:	db10      	blt.n	2990 <_printf_float+0x348>
    296e:	f8db 3000 	ldr.w	r3, [fp]
    2972:	07da      	lsls	r2, r3, #31
    2974:	d40c      	bmi.n	2990 <_printf_float+0x348>
    2976:	9a0e      	ldr	r2, [sp, #56]	; 0x38
    2978:	4417      	add	r7, r2
    297a:	ebc8 0307 	rsb	r3, r8, r7
    297e:	9f0d      	ldr	r7, [sp, #52]	; 0x34
    2980:	1bd2      	subs	r2, r2, r7
    2982:	4293      	cmp	r3, r2
    2984:	bfa8      	it	ge
    2986:	4613      	movge	r3, r2
    2988:	2b00      	cmp	r3, #0
    298a:	461f      	mov	r7, r3
    298c:	dc08      	bgt.n	29a0 <_printf_float+0x358>
    298e:	e00e      	b.n	29ae <_printf_float+0x366>
    2990:	4620      	mov	r0, r4
    2992:	4629      	mov	r1, r5
    2994:	4652      	mov	r2, sl
    2996:	9b09      	ldr	r3, [sp, #36]	; 0x24
    2998:	47b0      	blx	r6
    299a:	3001      	adds	r0, #1
    299c:	d1eb      	bne.n	2976 <_printf_float+0x32e>
    299e:	e73d      	b.n	281c <_printf_float+0x1d4>
    29a0:	4620      	mov	r0, r4
    29a2:	4629      	mov	r1, r5
    29a4:	4642      	mov	r2, r8
    29a6:	47b0      	blx	r6
    29a8:	3001      	adds	r0, #1
    29aa:	f43f af37 	beq.w	281c <_printf_float+0x1d4>
    29ae:	f04f 0800 	mov.w	r8, #0
    29b2:	e00a      	b.n	29ca <_printf_float+0x382>
    29b4:	4620      	mov	r0, r4
    29b6:	4629      	mov	r1, r5
    29b8:	f10b 021a 	add.w	r2, fp, #26
    29bc:	2301      	movs	r3, #1
    29be:	47b0      	blx	r6
    29c0:	3001      	adds	r0, #1
    29c2:	f43f af2b 	beq.w	281c <_printf_float+0x1d4>
    29c6:	f108 0801 	add.w	r8, r8, #1
    29ca:	9a0d      	ldr	r2, [sp, #52]	; 0x34
    29cc:	9b0e      	ldr	r3, [sp, #56]	; 0x38
    29ce:	2f00      	cmp	r7, #0
    29d0:	eba3 0302 	sub.w	r3, r3, r2
    29d4:	bfa8      	it	ge
    29d6:	1bdb      	subge	r3, r3, r7
    29d8:	4598      	cmp	r8, r3
    29da:	dbeb      	blt.n	29b4 <_printf_float+0x36c>
    29dc:	e745      	b.n	286a <_printf_float+0x222>
    29de:	9a0e      	ldr	r2, [sp, #56]	; 0x38
    29e0:	2a01      	cmp	r2, #1
    29e2:	dc01      	bgt.n	29e8 <_printf_float+0x3a0>
    29e4:	07db      	lsls	r3, r3, #31
    29e6:	d536      	bpl.n	2a56 <_printf_float+0x40e>
    29e8:	4620      	mov	r0, r4
    29ea:	4629      	mov	r1, r5
    29ec:	463a      	mov	r2, r7
    29ee:	2301      	movs	r3, #1
    29f0:	47b0      	blx	r6
    29f2:	3001      	adds	r0, #1
    29f4:	f43f af12 	beq.w	281c <_printf_float+0x1d4>
    29f8:	4620      	mov	r0, r4
    29fa:	4629      	mov	r1, r5
    29fc:	4652      	mov	r2, sl
    29fe:	9b09      	ldr	r3, [sp, #36]	; 0x24
    2a00:	47b0      	blx	r6
    2a02:	3001      	adds	r0, #1
    2a04:	f43f af0a 	beq.w	281c <_printf_float+0x1d4>
    2a08:	e9db 0112 	ldrd	r0, r1, [fp, #72]	; 0x48
    2a0c:	2200      	movs	r2, #0
    2a0e:	2300      	movs	r3, #0
    2a10:	f004 fc9a 	bl	7348 <__aeabi_dcmpeq>
    2a14:	b9e8      	cbnz	r0, 2a52 <_printf_float+0x40a>
    2a16:	9b0e      	ldr	r3, [sp, #56]	; 0x38
    2a18:	4620      	mov	r0, r4
    2a1a:	4629      	mov	r1, r5
    2a1c:	1c7a      	adds	r2, r7, #1
    2a1e:	3b01      	subs	r3, #1
    2a20:	e01d      	b.n	2a5e <_printf_float+0x416>
    2a22:	4620      	mov	r0, r4
    2a24:	4629      	mov	r1, r5
    2a26:	f10b 021a 	add.w	r2, fp, #26
    2a2a:	2301      	movs	r3, #1
    2a2c:	47b0      	blx	r6
    2a2e:	3001      	adds	r0, #1
    2a30:	f43f aef4 	beq.w	281c <_printf_float+0x1d4>
    2a34:	3701      	adds	r7, #1
    2a36:	9b0e      	ldr	r3, [sp, #56]	; 0x38
    2a38:	3b01      	subs	r3, #1
    2a3a:	429f      	cmp	r7, r3
    2a3c:	dbf1      	blt.n	2a22 <_printf_float+0x3da>
    2a3e:	4620      	mov	r0, r4
    2a40:	4629      	mov	r1, r5
    2a42:	464b      	mov	r3, r9
    2a44:	f10b 0250 	add.w	r2, fp, #80	; 0x50
    2a48:	47b0      	blx	r6
    2a4a:	3001      	adds	r0, #1
    2a4c:	f47f af0d 	bne.w	286a <_printf_float+0x222>
    2a50:	e6e4      	b.n	281c <_printf_float+0x1d4>
    2a52:	2700      	movs	r7, #0
    2a54:	e7ef      	b.n	2a36 <_printf_float+0x3ee>
    2a56:	4620      	mov	r0, r4
    2a58:	4629      	mov	r1, r5
    2a5a:	463a      	mov	r2, r7
    2a5c:	2301      	movs	r3, #1
    2a5e:	47b0      	blx	r6
    2a60:	3001      	adds	r0, #1
    2a62:	d1ec      	bne.n	2a3e <_printf_float+0x3f6>
    2a64:	e6da      	b.n	281c <_printf_float+0x1d4>
    2a66:	4620      	mov	r0, r4
    2a68:	4629      	mov	r1, r5
    2a6a:	f10b 0219 	add.w	r2, fp, #25
    2a6e:	2301      	movs	r3, #1
    2a70:	47b0      	blx	r6
    2a72:	3001      	adds	r0, #1
    2a74:	f43f aed2 	beq.w	281c <_printf_float+0x1d4>
    2a78:	3701      	adds	r7, #1
    2a7a:	f8db 300c 	ldr.w	r3, [fp, #12]
    2a7e:	9a0f      	ldr	r2, [sp, #60]	; 0x3c
    2a80:	1a9b      	subs	r3, r3, r2
    2a82:	429f      	cmp	r7, r3
    2a84:	dbef      	blt.n	2a66 <_printf_float+0x41e>
    2a86:	f8db 000c 	ldr.w	r0, [fp, #12]
    2a8a:	9b0f      	ldr	r3, [sp, #60]	; 0x3c
    2a8c:	4298      	cmp	r0, r3
    2a8e:	bfb8      	it	lt
    2a90:	4618      	movlt	r0, r3
    2a92:	e019      	b.n	2ac8 <_printf_float+0x480>
    2a94:	2700      	movs	r7, #0
    2a96:	e7f0      	b.n	2a7a <_printf_float+0x432>
    2a98:	f443 6380 	orr.w	r3, r3, #1024	; 0x400
    2a9c:	e88d 000c 	stmia.w	sp, {r2, r3}
    2aa0:	f8cb 3000 	str.w	r3, [fp]
    2aa4:	f10d 0333 	add.w	r3, sp, #51	; 0x33
    2aa8:	9302      	str	r3, [sp, #8]
    2aaa:	ab0d      	add	r3, sp, #52	; 0x34
    2aac:	9303      	str	r3, [sp, #12]
    2aae:	ab0e      	add	r3, sp, #56	; 0x38
    2ab0:	9305      	str	r3, [sp, #20]
    2ab2:	2300      	movs	r3, #0
    2ab4:	9306      	str	r3, [sp, #24]
    2ab6:	f8cd 8010 	str.w	r8, [sp, #16]
    2aba:	4620      	mov	r0, r4
    2abc:	e9dd 230a 	ldrd	r2, r3, [sp, #40]	; 0x28
    2ac0:	f7ff fd32 	bl	2528 <__cvt>
    2ac4:	4607      	mov	r7, r0
    2ac6:	e640      	b.n	274a <_printf_float+0x102>
    2ac8:	b011      	add	sp, #68	; 0x44
    2aca:	e8bd 8ff0 	ldmia.w	sp!, {r4, r5, r6, r7, r8, r9, sl, fp, pc}
    2ace:	bf00      	nop

00002ad0 <_printf_common>:
    2ad0:	e92d 43f8 	stmdb	sp!, {r3, r4, r5, r6, r7, r8, r9, lr}
    2ad4:	4691      	mov	r9, r2
    2ad6:	461f      	mov	r7, r3
    2ad8:	688a      	ldr	r2, [r1, #8]
    2ada:	690b      	ldr	r3, [r1, #16]
    2adc:	4606      	mov	r6, r0
    2ade:	4293      	cmp	r3, r2
    2ae0:	bfb8      	it	lt
    2ae2:	4613      	movlt	r3, r2
    2ae4:	f8c9 3000 	str.w	r3, [r9]
    2ae8:	f891 2043 	ldrb.w	r2, [r1, #67]	; 0x43
    2aec:	460c      	mov	r4, r1
    2aee:	f8dd 8020 	ldr.w	r8, [sp, #32]
    2af2:	b112      	cbz	r2, 2afa <_printf_common+0x2a>
    2af4:	3301      	adds	r3, #1
    2af6:	f8c9 3000 	str.w	r3, [r9]
    2afa:	6823      	ldr	r3, [r4, #0]
    2afc:	0699      	lsls	r1, r3, #26
    2afe:	bf42      	ittt	mi
    2b00:	f8d9 3000 	ldrmi.w	r3, [r9]
    2b04:	3302      	addmi	r3, #2
    2b06:	f8c9 3000 	strmi.w	r3, [r9]
    2b0a:	6825      	ldr	r5, [r4, #0]
    2b0c:	f015 0506 	ands.w	r5, r5, #6
    2b10:	d01c      	beq.n	2b4c <_printf_common+0x7c>
    2b12:	f894 3043 	ldrb.w	r3, [r4, #67]	; 0x43
    2b16:	6822      	ldr	r2, [r4, #0]
    2b18:	3300      	adds	r3, #0
    2b1a:	bf18      	it	ne
    2b1c:	2301      	movne	r3, #1
    2b1e:	0692      	lsls	r2, r2, #26
    2b20:	d51f      	bpl.n	2b62 <_printf_common+0x92>
    2b22:	18e1      	adds	r1, r4, r3
    2b24:	2030      	movs	r0, #48	; 0x30
    2b26:	f881 0043 	strb.w	r0, [r1, #67]	; 0x43
    2b2a:	1c5a      	adds	r2, r3, #1
    2b2c:	f894 1045 	ldrb.w	r1, [r4, #69]	; 0x45
    2b30:	4422      	add	r2, r4
    2b32:	3302      	adds	r3, #2
    2b34:	f882 1043 	strb.w	r1, [r2, #67]	; 0x43
    2b38:	e013      	b.n	2b62 <_printf_common+0x92>
    2b3a:	4630      	mov	r0, r6
    2b3c:	4639      	mov	r1, r7
    2b3e:	f104 0219 	add.w	r2, r4, #25
    2b42:	2301      	movs	r3, #1
    2b44:	47c0      	blx	r8
    2b46:	3001      	adds	r0, #1
    2b48:	d007      	beq.n	2b5a <_printf_common+0x8a>
    2b4a:	3501      	adds	r5, #1
    2b4c:	68e3      	ldr	r3, [r4, #12]
    2b4e:	f8d9 2000 	ldr.w	r2, [r9]
    2b52:	1a9b      	subs	r3, r3, r2
    2b54:	429d      	cmp	r5, r3
    2b56:	dbf0      	blt.n	2b3a <_printf_common+0x6a>
    2b58:	e7db      	b.n	2b12 <_printf_common+0x42>
    2b5a:	f04f 30ff 	mov.w	r0, #4294967295
    2b5e:	e8bd 83f8 	ldmia.w	sp!, {r3, r4, r5, r6, r7, r8, r9, pc}
    2b62:	4630      	mov	r0, r6
    2b64:	4639      	mov	r1, r7
    2b66:	f104 0243 	add.w	r2, r4, #67	; 0x43
    2b6a:	47c0      	blx	r8
    2b6c:	3001      	adds	r0, #1
    2b6e:	d0f4      	beq.n	2b5a <_printf_common+0x8a>
    2b70:	6822      	ldr	r2, [r4, #0]
    2b72:	f8d9 5000 	ldr.w	r5, [r9]
    2b76:	68e3      	ldr	r3, [r4, #12]
    2b78:	f002 0206 	and.w	r2, r2, #6
    2b7c:	2a04      	cmp	r2, #4
    2b7e:	bf08      	it	eq
    2b80:	1b5d      	subeq	r5, r3, r5
    2b82:	6922      	ldr	r2, [r4, #16]
    2b84:	68a3      	ldr	r3, [r4, #8]
    2b86:	bf0c      	ite	eq
    2b88:	ea25 75e5 	biceq.w	r5, r5, r5, asr #31
    2b8c:	2500      	movne	r5, #0
    2b8e:	4293      	cmp	r3, r2
    2b90:	bfc4      	itt	gt
    2b92:	1a9b      	subgt	r3, r3, r2
    2b94:	18ed      	addgt	r5, r5, r3
    2b96:	f04f 0900 	mov.w	r9, #0
    2b9a:	45a9      	cmp	r9, r5
    2b9c:	da0a      	bge.n	2bb4 <_printf_common+0xe4>
    2b9e:	4630      	mov	r0, r6
    2ba0:	4639      	mov	r1, r7
    2ba2:	f104 021a 	add.w	r2, r4, #26
    2ba6:	2301      	movs	r3, #1
    2ba8:	47c0      	blx	r8
    2baa:	3001      	adds	r0, #1
    2bac:	d0d5      	beq.n	2b5a <_printf_common+0x8a>
    2bae:	f109 0901 	add.w	r9, r9, #1
    2bb2:	e7f2      	b.n	2b9a <_printf_common+0xca>
    2bb4:	2000      	movs	r0, #0
    2bb6:	e8bd 83f8 	ldmia.w	sp!, {r3, r4, r5, r6, r7, r8, r9, pc}
	...

00002bbc <_printf_i>:
    2bbc:	e92d 41ff 	stmdb	sp!, {r0, r1, r2, r3, r4, r5, r6, r7, r8, lr}
    2bc0:	460c      	mov	r4, r1
    2bc2:	4617      	mov	r7, r2
    2bc4:	7e22      	ldrb	r2, [r4, #24]
    2bc6:	4698      	mov	r8, r3
    2bc8:	2a6e      	cmp	r2, #110	; 0x6e
    2bca:	4606      	mov	r6, r0
    2bcc:	9b0a      	ldr	r3, [sp, #40]	; 0x28
    2bce:	f101 0143 	add.w	r1, r1, #67	; 0x43
    2bd2:	f000 80aa 	beq.w	2d2a <_printf_i+0x16e>
    2bd6:	d812      	bhi.n	2bfe <_printf_i+0x42>
    2bd8:	2a63      	cmp	r2, #99	; 0x63
    2bda:	d023      	beq.n	2c24 <_printf_i+0x68>
    2bdc:	d80a      	bhi.n	2bf4 <_printf_i+0x38>
    2bde:	2a00      	cmp	r2, #0
    2be0:	f000 80b7 	beq.w	2d52 <_printf_i+0x196>
    2be4:	2a58      	cmp	r2, #88	; 0x58
    2be6:	f040 80c6 	bne.w	2d76 <_printf_i+0x1ba>
    2bea:	f884 2045 	strb.w	r2, [r4, #69]	; 0x45
    2bee:	f8df e1f8 	ldr.w	lr, [pc, #504]	; 2de8 <_printf_i+0x22c>
    2bf2:	e051      	b.n	2c98 <_printf_i+0xdc>
    2bf4:	2a64      	cmp	r2, #100	; 0x64
    2bf6:	d01e      	beq.n	2c36 <_printf_i+0x7a>
    2bf8:	2a69      	cmp	r2, #105	; 0x69
    2bfa:	d01c      	beq.n	2c36 <_printf_i+0x7a>
    2bfc:	e0bb      	b.n	2d76 <_printf_i+0x1ba>
    2bfe:	2a73      	cmp	r2, #115	; 0x73
    2c00:	f000 80ab 	beq.w	2d5a <_printf_i+0x19e>
    2c04:	d809      	bhi.n	2c1a <_printf_i+0x5e>
    2c06:	2a6f      	cmp	r2, #111	; 0x6f
    2c08:	d02b      	beq.n	2c62 <_printf_i+0xa6>
    2c0a:	2a70      	cmp	r2, #112	; 0x70
    2c0c:	f040 80b3 	bne.w	2d76 <_printf_i+0x1ba>
    2c10:	6822      	ldr	r2, [r4, #0]
    2c12:	f042 0220 	orr.w	r2, r2, #32
    2c16:	6022      	str	r2, [r4, #0]
    2c18:	e039      	b.n	2c8e <_printf_i+0xd2>
    2c1a:	2a75      	cmp	r2, #117	; 0x75
    2c1c:	d021      	beq.n	2c62 <_printf_i+0xa6>
    2c1e:	2a78      	cmp	r2, #120	; 0x78
    2c20:	d035      	beq.n	2c8e <_printf_i+0xd2>
    2c22:	e0a8      	b.n	2d76 <_printf_i+0x1ba>
    2c24:	681a      	ldr	r2, [r3, #0]
    2c26:	f104 0542 	add.w	r5, r4, #66	; 0x42
    2c2a:	1d11      	adds	r1, r2, #4
    2c2c:	6019      	str	r1, [r3, #0]
    2c2e:	6813      	ldr	r3, [r2, #0]
    2c30:	f884 3042 	strb.w	r3, [r4, #66]	; 0x42
    2c34:	e0a3      	b.n	2d7e <_printf_i+0x1c2>
    2c36:	6820      	ldr	r0, [r4, #0]
    2c38:	681a      	ldr	r2, [r3, #0]
    2c3a:	f010 0f80 	tst.w	r0, #128	; 0x80
    2c3e:	d003      	beq.n	2c48 <_printf_i+0x8c>
    2c40:	1d10      	adds	r0, r2, #4
    2c42:	6018      	str	r0, [r3, #0]
    2c44:	6813      	ldr	r3, [r2, #0]
    2c46:	e005      	b.n	2c54 <_printf_i+0x98>
    2c48:	0645      	lsls	r5, r0, #25
    2c4a:	d5f9      	bpl.n	2c40 <_printf_i+0x84>
    2c4c:	1d10      	adds	r0, r2, #4
    2c4e:	6018      	str	r0, [r3, #0]
    2c50:	f9b2 3000 	ldrsh.w	r3, [r2]
    2c54:	2b00      	cmp	r3, #0
    2c56:	da3b      	bge.n	2cd0 <_printf_i+0x114>
    2c58:	222d      	movs	r2, #45	; 0x2d
    2c5a:	425b      	negs	r3, r3
    2c5c:	f884 2043 	strb.w	r2, [r4, #67]	; 0x43
    2c60:	e036      	b.n	2cd0 <_printf_i+0x114>
    2c62:	6820      	ldr	r0, [r4, #0]
    2c64:	681a      	ldr	r2, [r3, #0]
    2c66:	f010 0f80 	tst.w	r0, #128	; 0x80
    2c6a:	d003      	beq.n	2c74 <_printf_i+0xb8>
    2c6c:	1d10      	adds	r0, r2, #4
    2c6e:	6018      	str	r0, [r3, #0]
    2c70:	6813      	ldr	r3, [r2, #0]
    2c72:	e004      	b.n	2c7e <_printf_i+0xc2>
    2c74:	0640      	lsls	r0, r0, #25
    2c76:	d5f9      	bpl.n	2c6c <_printf_i+0xb0>
    2c78:	1d10      	adds	r0, r2, #4
    2c7a:	6018      	str	r0, [r3, #0]
    2c7c:	8813      	ldrh	r3, [r2, #0]
    2c7e:	7e22      	ldrb	r2, [r4, #24]
    2c80:	f8df e164 	ldr.w	lr, [pc, #356]	; 2de8 <_printf_i+0x22c>
    2c84:	2a6f      	cmp	r2, #111	; 0x6f
    2c86:	bf0c      	ite	eq
    2c88:	2208      	moveq	r2, #8
    2c8a:	220a      	movne	r2, #10
    2c8c:	e01c      	b.n	2cc8 <_printf_i+0x10c>
    2c8e:	2278      	movs	r2, #120	; 0x78
    2c90:	f8df e158 	ldr.w	lr, [pc, #344]	; 2dec <_printf_i+0x230>
    2c94:	f884 2045 	strb.w	r2, [r4, #69]	; 0x45
    2c98:	6822      	ldr	r2, [r4, #0]
    2c9a:	6818      	ldr	r0, [r3, #0]
    2c9c:	f012 0f80 	tst.w	r2, #128	; 0x80
    2ca0:	f100 0504 	add.w	r5, r0, #4
    2ca4:	601d      	str	r5, [r3, #0]
    2ca6:	d001      	beq.n	2cac <_printf_i+0xf0>
    2ca8:	6803      	ldr	r3, [r0, #0]
    2caa:	e002      	b.n	2cb2 <_printf_i+0xf6>
    2cac:	0655      	lsls	r5, r2, #25
    2cae:	d5fb      	bpl.n	2ca8 <_printf_i+0xec>
    2cb0:	8803      	ldrh	r3, [r0, #0]
    2cb2:	07d0      	lsls	r0, r2, #31
    2cb4:	bf44      	itt	mi
    2cb6:	f042 0220 	orrmi.w	r2, r2, #32
    2cba:	6022      	strmi	r2, [r4, #0]
    2cbc:	b91b      	cbnz	r3, 2cc6 <_printf_i+0x10a>
    2cbe:	6822      	ldr	r2, [r4, #0]
    2cc0:	f022 0220 	bic.w	r2, r2, #32
    2cc4:	6022      	str	r2, [r4, #0]
    2cc6:	2210      	movs	r2, #16
    2cc8:	2000      	movs	r0, #0
    2cca:	f884 0043 	strb.w	r0, [r4, #67]	; 0x43
    2cce:	e002      	b.n	2cd6 <_printf_i+0x11a>
    2cd0:	f8df e114 	ldr.w	lr, [pc, #276]	; 2de8 <_printf_i+0x22c>
    2cd4:	220a      	movs	r2, #10
    2cd6:	6865      	ldr	r5, [r4, #4]
    2cd8:	2d00      	cmp	r5, #0
    2cda:	bfa8      	it	ge
    2cdc:	6820      	ldrge	r0, [r4, #0]
    2cde:	60a5      	str	r5, [r4, #8]
    2ce0:	bfa4      	itt	ge
    2ce2:	f020 0004 	bicge.w	r0, r0, #4
    2ce6:	6020      	strge	r0, [r4, #0]
    2ce8:	b903      	cbnz	r3, 2cec <_printf_i+0x130>
    2cea:	b165      	cbz	r5, 2d06 <_printf_i+0x14a>
    2cec:	460d      	mov	r5, r1
    2cee:	fbb3 f0f2 	udiv	r0, r3, r2
    2cf2:	fb02 3310 	mls	r3, r2, r0, r3
    2cf6:	f81e 3003 	ldrb.w	r3, [lr, r3]
    2cfa:	f805 3d01 	strb.w	r3, [r5, #-1]!
    2cfe:	4603      	mov	r3, r0
    2d00:	2800      	cmp	r0, #0
    2d02:	d1f4      	bne.n	2cee <_printf_i+0x132>
    2d04:	e000      	b.n	2d08 <_printf_i+0x14c>
    2d06:	460d      	mov	r5, r1
    2d08:	2a08      	cmp	r2, #8
    2d0a:	d10b      	bne.n	2d24 <_printf_i+0x168>
    2d0c:	6823      	ldr	r3, [r4, #0]
    2d0e:	07da      	lsls	r2, r3, #31
    2d10:	d508      	bpl.n	2d24 <_printf_i+0x168>
    2d12:	6923      	ldr	r3, [r4, #16]
    2d14:	6862      	ldr	r2, [r4, #4]
    2d16:	429a      	cmp	r2, r3
    2d18:	bfde      	ittt	le
    2d1a:	2330      	movle	r3, #48	; 0x30
    2d1c:	f805 3c01 	strble.w	r3, [r5, #-1]
    2d20:	f105 35ff 	addle.w	r5, r5, #4294967295
    2d24:	1b49      	subs	r1, r1, r5
    2d26:	6121      	str	r1, [r4, #16]
    2d28:	e02e      	b.n	2d88 <_printf_i+0x1cc>
    2d2a:	6825      	ldr	r5, [r4, #0]
    2d2c:	681a      	ldr	r2, [r3, #0]
    2d2e:	f015 0f80 	tst.w	r5, #128	; 0x80
    2d32:	6960      	ldr	r0, [r4, #20]
    2d34:	d003      	beq.n	2d3e <_printf_i+0x182>
    2d36:	1d15      	adds	r5, r2, #4
    2d38:	601d      	str	r5, [r3, #0]
    2d3a:	6813      	ldr	r3, [r2, #0]
    2d3c:	e008      	b.n	2d50 <_printf_i+0x194>
    2d3e:	f015 0f40 	tst.w	r5, #64	; 0x40
    2d42:	f102 0504 	add.w	r5, r2, #4
    2d46:	601d      	str	r5, [r3, #0]
    2d48:	6813      	ldr	r3, [r2, #0]
    2d4a:	d001      	beq.n	2d50 <_printf_i+0x194>
    2d4c:	8018      	strh	r0, [r3, #0]
    2d4e:	e000      	b.n	2d52 <_printf_i+0x196>
    2d50:	6018      	str	r0, [r3, #0]
    2d52:	2300      	movs	r3, #0
    2d54:	6123      	str	r3, [r4, #16]
    2d56:	460d      	mov	r5, r1
    2d58:	e016      	b.n	2d88 <_printf_i+0x1cc>
    2d5a:	681a      	ldr	r2, [r3, #0]
    2d5c:	1d11      	adds	r1, r2, #4
    2d5e:	6019      	str	r1, [r3, #0]
    2d60:	6815      	ldr	r5, [r2, #0]
    2d62:	2100      	movs	r1, #0
    2d64:	4628      	mov	r0, r5
    2d66:	6862      	ldr	r2, [r4, #4]
    2d68:	f7ff f9e4 	bl	2134 <memchr>
    2d6c:	b108      	cbz	r0, 2d72 <_printf_i+0x1b6>
    2d6e:	1b40      	subs	r0, r0, r5
    2d70:	6060      	str	r0, [r4, #4]
    2d72:	6863      	ldr	r3, [r4, #4]
    2d74:	e004      	b.n	2d80 <_printf_i+0x1c4>
    2d76:	f104 0542 	add.w	r5, r4, #66	; 0x42
    2d7a:	f884 2042 	strb.w	r2, [r4, #66]	; 0x42
    2d7e:	2301      	movs	r3, #1
    2d80:	6123      	str	r3, [r4, #16]
    2d82:	2300      	movs	r3, #0
    2d84:	f884 3043 	strb.w	r3, [r4, #67]	; 0x43
    2d88:	f8cd 8000 	str.w	r8, [sp]
    2d8c:	4630      	mov	r0, r6
    2d8e:	4621      	mov	r1, r4
    2d90:	aa03      	add	r2, sp, #12
    2d92:	463b      	mov	r3, r7
    2d94:	f7ff fe9c 	bl	2ad0 <_printf_common>
    2d98:	3001      	adds	r0, #1
    2d9a:	d102      	bne.n	2da2 <_printf_i+0x1e6>
    2d9c:	f04f 30ff 	mov.w	r0, #4294967295
    2da0:	e01f      	b.n	2de2 <_printf_i+0x226>
    2da2:	4630      	mov	r0, r6
    2da4:	4639      	mov	r1, r7
    2da6:	462a      	mov	r2, r5
    2da8:	6923      	ldr	r3, [r4, #16]
    2daa:	47c0      	blx	r8
    2dac:	3001      	adds	r0, #1
    2dae:	d0f5      	beq.n	2d9c <_printf_i+0x1e0>
    2db0:	6823      	ldr	r3, [r4, #0]
    2db2:	079b      	lsls	r3, r3, #30
    2db4:	d405      	bmi.n	2dc2 <_printf_i+0x206>
    2db6:	68e0      	ldr	r0, [r4, #12]
    2db8:	9b03      	ldr	r3, [sp, #12]
    2dba:	4298      	cmp	r0, r3
    2dbc:	bfb8      	it	lt
    2dbe:	4618      	movlt	r0, r3
    2dc0:	e00f      	b.n	2de2 <_printf_i+0x226>
    2dc2:	2500      	movs	r5, #0
    2dc4:	68e3      	ldr	r3, [r4, #12]
    2dc6:	9a03      	ldr	r2, [sp, #12]
    2dc8:	1a9b      	subs	r3, r3, r2
    2dca:	429d      	cmp	r5, r3
    2dcc:	daf3      	bge.n	2db6 <_printf_i+0x1fa>
    2dce:	4630      	mov	r0, r6
    2dd0:	4639      	mov	r1, r7
    2dd2:	f104 0219 	add.w	r2, r4, #25
    2dd6:	2301      	movs	r3, #1
    2dd8:	47c0      	blx	r8
    2dda:	3001      	adds	r0, #1
    2ddc:	d0de      	beq.n	2d9c <_printf_i+0x1e0>
    2dde:	3501      	adds	r5, #1
    2de0:	e7f0      	b.n	2dc4 <_printf_i+0x208>
    2de2:	b004      	add	sp, #16
    2de4:	e8bd 81f0 	ldmia.w	sp!, {r4, r5, r6, r7, r8, pc}
    2de8:	00007bf1 	.word	0x00007bf1
    2dec:	00007c02 	.word	0x00007c02

00002df0 <_scanf_float>:
    2df0:	e92d 4ff0 	stmdb	sp!, {r4, r5, r6, r7, r8, r9, sl, fp, lr}
    2df4:	4699      	mov	r9, r3
    2df6:	688b      	ldr	r3, [r1, #8]
    2df8:	4615      	mov	r5, r2
    2dfa:	1e5a      	subs	r2, r3, #1
    2dfc:	f5b2 7fae 	cmp.w	r2, #348	; 0x15c
    2e00:	bf82      	ittt	hi
    2e02:	f46f 72ae 	mvnhi.w	r2, #348	; 0x15c
    2e06:	eb03 0c02 	addhi.w	ip, r3, r2
    2e0a:	f240 135d 	movwhi	r3, #349	; 0x15d
    2e0e:	460f      	mov	r7, r1
    2e10:	bf88      	it	hi
    2e12:	608b      	strhi	r3, [r1, #8]
    2e14:	680b      	ldr	r3, [r1, #0]
    2e16:	f04f 0b00 	mov.w	fp, #0
    2e1a:	f443 63f0 	orr.w	r3, r3, #1920	; 0x780
    2e1e:	f847 3b1c 	str.w	r3, [r7], #28
    2e22:	4606      	mov	r6, r0
    2e24:	460c      	mov	r4, r1
    2e26:	46b8      	mov	r8, r7
    2e28:	465a      	mov	r2, fp
    2e2a:	46da      	mov	sl, fp
    2e2c:	b087      	sub	sp, #28
    2e2e:	bf98      	it	ls
    2e30:	f04f 0c00 	movls.w	ip, #0
    2e34:	f8cd b00c 	str.w	fp, [sp, #12]
    2e38:	f8cd b008 	str.w	fp, [sp, #8]
    2e3c:	f8cd b004 	str.w	fp, [sp, #4]
    2e40:	68a1      	ldr	r1, [r4, #8]
    2e42:	2900      	cmp	r1, #0
    2e44:	f000 80ec 	beq.w	3020 <_scanf_float+0x230>
    2e48:	682b      	ldr	r3, [r5, #0]
    2e4a:	781b      	ldrb	r3, [r3, #0]
    2e4c:	2b49      	cmp	r3, #73	; 0x49
    2e4e:	d070      	beq.n	2f32 <_scanf_float+0x142>
    2e50:	d816      	bhi.n	2e80 <_scanf_float+0x90>
    2e52:	2b39      	cmp	r3, #57	; 0x39
    2e54:	d80d      	bhi.n	2e72 <_scanf_float+0x82>
    2e56:	2b31      	cmp	r3, #49	; 0x31
    2e58:	d240      	bcs.n	2edc <_scanf_float+0xec>
    2e5a:	2b2d      	cmp	r3, #45	; 0x2d
    2e5c:	d046      	beq.n	2eec <_scanf_float+0xfc>
    2e5e:	d802      	bhi.n	2e66 <_scanf_float+0x76>
    2e60:	2b2b      	cmp	r3, #43	; 0x2b
    2e62:	d043      	beq.n	2eec <_scanf_float+0xfc>
    2e64:	e0dc      	b.n	3020 <_scanf_float+0x230>
    2e66:	2b2e      	cmp	r3, #46	; 0x2e
    2e68:	f000 8092 	beq.w	2f90 <_scanf_float+0x1a0>
    2e6c:	2b30      	cmp	r3, #48	; 0x30
    2e6e:	d023      	beq.n	2eb8 <_scanf_float+0xc8>
    2e70:	e0d6      	b.n	3020 <_scanf_float+0x230>
    2e72:	2b45      	cmp	r3, #69	; 0x45
    2e74:	f000 8095 	beq.w	2fa2 <_scanf_float+0x1b2>
    2e78:	2b46      	cmp	r3, #70	; 0x46
    2e7a:	d077      	beq.n	2f6c <_scanf_float+0x17c>
    2e7c:	2b41      	cmp	r3, #65	; 0x41
    2e7e:	e00c      	b.n	2e9a <_scanf_float+0xaa>
    2e80:	2b65      	cmp	r3, #101	; 0x65
    2e82:	f000 808e 	beq.w	2fa2 <_scanf_float+0x1b2>
    2e86:	d80a      	bhi.n	2e9e <_scanf_float+0xae>
    2e88:	2b54      	cmp	r3, #84	; 0x54
    2e8a:	d075      	beq.n	2f78 <_scanf_float+0x188>
    2e8c:	d802      	bhi.n	2e94 <_scanf_float+0xa4>
    2e8e:	2b4e      	cmp	r3, #78	; 0x4e
    2e90:	d034      	beq.n	2efc <_scanf_float+0x10c>
    2e92:	e0c5      	b.n	3020 <_scanf_float+0x230>
    2e94:	2b59      	cmp	r3, #89	; 0x59
    2e96:	d075      	beq.n	2f84 <_scanf_float+0x194>
    2e98:	2b61      	cmp	r3, #97	; 0x61
    2e9a:	d046      	beq.n	2f2a <_scanf_float+0x13a>
    2e9c:	e0c0      	b.n	3020 <_scanf_float+0x230>
    2e9e:	2b6e      	cmp	r3, #110	; 0x6e
    2ea0:	d02c      	beq.n	2efc <_scanf_float+0x10c>
    2ea2:	d804      	bhi.n	2eae <_scanf_float+0xbe>
    2ea4:	2b66      	cmp	r3, #102	; 0x66
    2ea6:	d061      	beq.n	2f6c <_scanf_float+0x17c>
    2ea8:	2b69      	cmp	r3, #105	; 0x69
    2eaa:	d042      	beq.n	2f32 <_scanf_float+0x142>
    2eac:	e0b8      	b.n	3020 <_scanf_float+0x230>
    2eae:	2b74      	cmp	r3, #116	; 0x74
    2eb0:	d062      	beq.n	2f78 <_scanf_float+0x188>
    2eb2:	2b79      	cmp	r3, #121	; 0x79
    2eb4:	d066      	beq.n	2f84 <_scanf_float+0x194>
    2eb6:	e0b3      	b.n	3020 <_scanf_float+0x230>
    2eb8:	6820      	ldr	r0, [r4, #0]
    2eba:	f410 7f80 	tst.w	r0, #256	; 0x100
    2ebe:	d00d      	beq.n	2edc <_scanf_float+0xec>
    2ec0:	f020 0080 	bic.w	r0, r0, #128	; 0x80
    2ec4:	6020      	str	r0, [r4, #0]
    2ec6:	f10a 0a01 	add.w	sl, sl, #1
    2eca:	f1bc 0f00 	cmp.w	ip, #0
    2ece:	f000 808a 	beq.w	2fe6 <_scanf_float+0x1f6>
    2ed2:	3101      	adds	r1, #1
    2ed4:	f10c 3cff 	add.w	ip, ip, #4294967295
    2ed8:	60a1      	str	r1, [r4, #8]
    2eda:	e084      	b.n	2fe6 <_scanf_float+0x1f6>
    2edc:	eb12 0f0b 	cmn.w	r2, fp
    2ee0:	f040 809e 	bne.w	3020 <_scanf_float+0x230>
    2ee4:	6821      	ldr	r1, [r4, #0]
    2ee6:	f421 71c0 	bic.w	r1, r1, #384	; 0x180
    2eea:	e005      	b.n	2ef8 <_scanf_float+0x108>
    2eec:	6821      	ldr	r1, [r4, #0]
    2eee:	0608      	lsls	r0, r1, #24
    2ef0:	f140 8096 	bpl.w	3020 <_scanf_float+0x230>
    2ef4:	f021 0180 	bic.w	r1, r1, #128	; 0x80
    2ef8:	6021      	str	r1, [r4, #0]
    2efa:	e070      	b.n	2fde <_scanf_float+0x1ee>
    2efc:	b96a      	cbnz	r2, 2f1a <_scanf_float+0x12a>
    2efe:	f1ba 0f00 	cmp.w	sl, #0
    2f02:	d10c      	bne.n	2f1e <_scanf_float+0x12e>
    2f04:	6821      	ldr	r1, [r4, #0]
    2f06:	f401 60e0 	and.w	r0, r1, #1792	; 0x700
    2f0a:	f5b0 6fe0 	cmp.w	r0, #1792	; 0x700
    2f0e:	d106      	bne.n	2f1e <_scanf_float+0x12e>
    2f10:	f421 61f0 	bic.w	r1, r1, #1920	; 0x780
    2f14:	6021      	str	r1, [r4, #0]
    2f16:	2201      	movs	r2, #1
    2f18:	e061      	b.n	2fde <_scanf_float+0x1ee>
    2f1a:	2a02      	cmp	r2, #2
    2f1c:	d05e      	beq.n	2fdc <_scanf_float+0x1ec>
    2f1e:	f1bb 0f01 	cmp.w	fp, #1
    2f22:	d01e      	beq.n	2f62 <_scanf_float+0x172>
    2f24:	f1bb 0f04 	cmp.w	fp, #4
    2f28:	e01a      	b.n	2f60 <_scanf_float+0x170>
    2f2a:	2a01      	cmp	r2, #1
    2f2c:	d178      	bne.n	3020 <_scanf_float+0x230>
    2f2e:	2202      	movs	r2, #2
    2f30:	e055      	b.n	2fde <_scanf_float+0x1ee>
    2f32:	f1bb 0f00 	cmp.w	fp, #0
    2f36:	d10e      	bne.n	2f56 <_scanf_float+0x166>
    2f38:	f1ba 0f00 	cmp.w	sl, #0
    2f3c:	d173      	bne.n	3026 <_scanf_float+0x236>
    2f3e:	6821      	ldr	r1, [r4, #0]
    2f40:	f401 60e0 	and.w	r0, r1, #1792	; 0x700
    2f44:	f5b0 6fe0 	cmp.w	r0, #1792	; 0x700
    2f48:	d171      	bne.n	302e <_scanf_float+0x23e>
    2f4a:	f421 61f0 	bic.w	r1, r1, #1920	; 0x780
    2f4e:	6021      	str	r1, [r4, #0]
    2f50:	f04f 0b01 	mov.w	fp, #1
    2f54:	e043      	b.n	2fde <_scanf_float+0x1ee>
    2f56:	f1bb 0f03 	cmp.w	fp, #3
    2f5a:	d002      	beq.n	2f62 <_scanf_float+0x172>
    2f5c:	f1bb 0f05 	cmp.w	fp, #5
    2f60:	d15e      	bne.n	3020 <_scanf_float+0x230>
    2f62:	f10b 0b01 	add.w	fp, fp, #1
    2f66:	fa5f fb8b 	uxtb.w	fp, fp
    2f6a:	e038      	b.n	2fde <_scanf_float+0x1ee>
    2f6c:	f1bb 0f02 	cmp.w	fp, #2
    2f70:	d156      	bne.n	3020 <_scanf_float+0x230>
    2f72:	f04f 0b03 	mov.w	fp, #3
    2f76:	e032      	b.n	2fde <_scanf_float+0x1ee>
    2f78:	f1bb 0f06 	cmp.w	fp, #6
    2f7c:	d150      	bne.n	3020 <_scanf_float+0x230>
    2f7e:	f04f 0b07 	mov.w	fp, #7
    2f82:	e02c      	b.n	2fde <_scanf_float+0x1ee>
    2f84:	f1bb 0f07 	cmp.w	fp, #7
    2f88:	d14a      	bne.n	3020 <_scanf_float+0x230>
    2f8a:	f04f 0b08 	mov.w	fp, #8
    2f8e:	e026      	b.n	2fde <_scanf_float+0x1ee>
    2f90:	6821      	ldr	r1, [r4, #0]
    2f92:	0588      	lsls	r0, r1, #22
    2f94:	d544      	bpl.n	3020 <_scanf_float+0x230>
    2f96:	f421 7120 	bic.w	r1, r1, #640	; 0x280
    2f9a:	6021      	str	r1, [r4, #0]
    2f9c:	f8cd a004 	str.w	sl, [sp, #4]
    2fa0:	e01d      	b.n	2fde <_scanf_float+0x1ee>
    2fa2:	6821      	ldr	r1, [r4, #0]
    2fa4:	f401 60a0 	and.w	r0, r1, #1280	; 0x500
    2fa8:	f5b0 6f80 	cmp.w	r0, #1024	; 0x400
    2fac:	d004      	beq.n	2fb8 <_scanf_float+0x1c8>
    2fae:	0548      	lsls	r0, r1, #21
    2fb0:	d536      	bpl.n	3020 <_scanf_float+0x230>
    2fb2:	f1ba 0f00 	cmp.w	sl, #0
    2fb6:	d03a      	beq.n	302e <_scanf_float+0x23e>
    2fb8:	0588      	lsls	r0, r1, #22
    2fba:	bf58      	it	pl
    2fbc:	9801      	ldrpl	r0, [sp, #4]
    2fbe:	f421 61f0 	bic.w	r1, r1, #1920	; 0x780
    2fc2:	bf58      	it	pl
    2fc4:	ebc0 000a 	rsbpl	r0, r0, sl
    2fc8:	f441 71c0 	orr.w	r1, r1, #384	; 0x180
    2fcc:	bf5c      	itt	pl
    2fce:	9002      	strpl	r0, [sp, #8]
    2fd0:	f8cd 800c 	strpl.w	r8, [sp, #12]
    2fd4:	6021      	str	r1, [r4, #0]
    2fd6:	f04f 0a00 	mov.w	sl, #0
    2fda:	e000      	b.n	2fde <_scanf_float+0x1ee>
    2fdc:	2203      	movs	r2, #3
    2fde:	f888 3000 	strb.w	r3, [r8]
    2fe2:	f108 0801 	add.w	r8, r8, #1
    2fe6:	68a3      	ldr	r3, [r4, #8]
    2fe8:	3b01      	subs	r3, #1
    2fea:	60a3      	str	r3, [r4, #8]
    2fec:	6923      	ldr	r3, [r4, #16]
    2fee:	3301      	adds	r3, #1
    2ff0:	6123      	str	r3, [r4, #16]
    2ff2:	686b      	ldr	r3, [r5, #4]
    2ff4:	3b01      	subs	r3, #1
    2ff6:	2b00      	cmp	r3, #0
    2ff8:	606b      	str	r3, [r5, #4]
    2ffa:	dd03      	ble.n	3004 <_scanf_float+0x214>
    2ffc:	682b      	ldr	r3, [r5, #0]
    2ffe:	3301      	adds	r3, #1
    3000:	602b      	str	r3, [r5, #0]
    3002:	e71d      	b.n	2e40 <_scanf_float+0x50>
    3004:	f8d4 3180 	ldr.w	r3, [r4, #384]	; 0x180
    3008:	4630      	mov	r0, r6
    300a:	4629      	mov	r1, r5
    300c:	9205      	str	r2, [sp, #20]
    300e:	f8cd c010 	str.w	ip, [sp, #16]
    3012:	4798      	blx	r3
    3014:	f8dd c010 	ldr.w	ip, [sp, #16]
    3018:	9a05      	ldr	r2, [sp, #20]
    301a:	2800      	cmp	r0, #0
    301c:	f43f af10 	beq.w	2e40 <_scanf_float+0x50>
    3020:	f1ba 0f00 	cmp.w	sl, #0
    3024:	d003      	beq.n	302e <_scanf_float+0x23e>
    3026:	6823      	ldr	r3, [r4, #0]
    3028:	f423 7380 	bic.w	r3, r3, #256	; 0x100
    302c:	6023      	str	r3, [r4, #0]
    302e:	3a01      	subs	r2, #1
    3030:	2a01      	cmp	r2, #1
    3032:	d80e      	bhi.n	3052 <_scanf_float+0x262>
    3034:	45b8      	cmp	r8, r7
    3036:	d90a      	bls.n	304e <_scanf_float+0x25e>
    3038:	f8d4 317c 	ldr.w	r3, [r4, #380]	; 0x17c
    303c:	4630      	mov	r0, r6
    303e:	f818 1d01 	ldrb.w	r1, [r8, #-1]!
    3042:	462a      	mov	r2, r5
    3044:	4798      	blx	r3
    3046:	6923      	ldr	r3, [r4, #16]
    3048:	3b01      	subs	r3, #1
    304a:	6123      	str	r3, [r4, #16]
    304c:	e7f2      	b.n	3034 <_scanf_float+0x244>
    304e:	2501      	movs	r5, #1
    3050:	e0ae      	b.n	31b0 <_scanf_float+0x3c0>
    3052:	f10b 33ff 	add.w	r3, fp, #4294967295
    3056:	2b06      	cmp	r3, #6
    3058:	d822      	bhi.n	30a0 <_scanf_float+0x2b0>
    305a:	f1bb 0f02 	cmp.w	fp, #2
    305e:	d912      	bls.n	3086 <_scanf_float+0x296>
    3060:	f1ab 0b03 	sub.w	fp, fp, #3
    3064:	fa5f fb8b 	uxtb.w	fp, fp
    3068:	ebcb 0b08 	rsb	fp, fp, r8
    306c:	45d8      	cmp	r8, fp
    306e:	d017      	beq.n	30a0 <_scanf_float+0x2b0>
    3070:	f8d4 317c 	ldr.w	r3, [r4, #380]	; 0x17c
    3074:	4630      	mov	r0, r6
    3076:	f818 1d01 	ldrb.w	r1, [r8, #-1]!
    307a:	462a      	mov	r2, r5
    307c:	4798      	blx	r3
    307e:	6923      	ldr	r3, [r4, #16]
    3080:	3b01      	subs	r3, #1
    3082:	6123      	str	r3, [r4, #16]
    3084:	e7f2      	b.n	306c <_scanf_float+0x27c>
    3086:	45b8      	cmp	r8, r7
    3088:	d9e1      	bls.n	304e <_scanf_float+0x25e>
    308a:	f8d4 317c 	ldr.w	r3, [r4, #380]	; 0x17c
    308e:	4630      	mov	r0, r6
    3090:	f818 1d01 	ldrb.w	r1, [r8, #-1]!
    3094:	462a      	mov	r2, r5
    3096:	4798      	blx	r3
    3098:	6923      	ldr	r3, [r4, #16]
    309a:	3b01      	subs	r3, #1
    309c:	6123      	str	r3, [r4, #16]
    309e:	e7f2      	b.n	3086 <_scanf_float+0x296>
    30a0:	6823      	ldr	r3, [r4, #0]
    30a2:	05da      	lsls	r2, r3, #23
    30a4:	d52c      	bpl.n	3100 <_scanf_float+0x310>
    30a6:	055b      	lsls	r3, r3, #21
    30a8:	d50c      	bpl.n	30c4 <_scanf_float+0x2d4>
    30aa:	45b8      	cmp	r8, r7
    30ac:	d9cf      	bls.n	304e <_scanf_float+0x25e>
    30ae:	f8d4 317c 	ldr.w	r3, [r4, #380]	; 0x17c
    30b2:	4630      	mov	r0, r6
    30b4:	f818 1d01 	ldrb.w	r1, [r8, #-1]!
    30b8:	462a      	mov	r2, r5
    30ba:	4798      	blx	r3
    30bc:	6923      	ldr	r3, [r4, #16]
    30be:	3b01      	subs	r3, #1
    30c0:	6123      	str	r3, [r4, #16]
    30c2:	e7f2      	b.n	30aa <_scanf_float+0x2ba>
    30c4:	f818 1c01 	ldrb.w	r1, [r8, #-1]
    30c8:	6923      	ldr	r3, [r4, #16]
    30ca:	2965      	cmp	r1, #101	; 0x65
    30cc:	f103 33ff 	add.w	r3, r3, #4294967295
    30d0:	f108 3bff 	add.w	fp, r8, #4294967295
    30d4:	6123      	str	r3, [r4, #16]
    30d6:	d00d      	beq.n	30f4 <_scanf_float+0x304>
    30d8:	2945      	cmp	r1, #69	; 0x45
    30da:	d00b      	beq.n	30f4 <_scanf_float+0x304>
    30dc:	f8d4 317c 	ldr.w	r3, [r4, #380]	; 0x17c
    30e0:	4630      	mov	r0, r6
    30e2:	462a      	mov	r2, r5
    30e4:	4798      	blx	r3
    30e6:	6923      	ldr	r3, [r4, #16]
    30e8:	f818 1c02 	ldrb.w	r1, [r8, #-2]
    30ec:	3b01      	subs	r3, #1
    30ee:	f1a8 0b02 	sub.w	fp, r8, #2
    30f2:	6123      	str	r3, [r4, #16]
    30f4:	f8d4 317c 	ldr.w	r3, [r4, #380]	; 0x17c
    30f8:	4630      	mov	r0, r6
    30fa:	462a      	mov	r2, r5
    30fc:	4798      	blx	r3
    30fe:	46d8      	mov	r8, fp
    3100:	6825      	ldr	r5, [r4, #0]
    3102:	f015 0510 	ands.w	r5, r5, #16
    3106:	d152      	bne.n	31ae <_scanf_float+0x3be>
    3108:	f888 5000 	strb.w	r5, [r8]
    310c:	6823      	ldr	r3, [r4, #0]
    310e:	f403 63c0 	and.w	r3, r3, #1536	; 0x600
    3112:	f5b3 6f80 	cmp.w	r3, #1024	; 0x400
    3116:	d105      	bne.n	3124 <_scanf_float+0x334>
    3118:	9b01      	ldr	r3, [sp, #4]
    311a:	ebc3 030a 	rsb	r3, r3, sl
    311e:	425a      	negs	r2, r3
    3120:	b96b      	cbnz	r3, 313e <_scanf_float+0x34e>
    3122:	e016      	b.n	3152 <_scanf_float+0x362>
    3124:	9b02      	ldr	r3, [sp, #8]
    3126:	b1a3      	cbz	r3, 3152 <_scanf_float+0x362>
    3128:	9b03      	ldr	r3, [sp, #12]
    312a:	462a      	mov	r2, r5
    312c:	1c59      	adds	r1, r3, #1
    312e:	4630      	mov	r0, r6
    3130:	230a      	movs	r3, #10
    3132:	f001 f9b5 	bl	44a0 <_strtol_r>
    3136:	9b02      	ldr	r3, [sp, #8]
    3138:	f8dd 800c 	ldr.w	r8, [sp, #12]
    313c:	1ac2      	subs	r2, r0, r3
    313e:	f204 136f 	addw	r3, r4, #367	; 0x16f
    3142:	4598      	cmp	r8, r3
    3144:	bf28      	it	cs
    3146:	f504 78b7 	addcs.w	r8, r4, #366	; 0x16e
    314a:	4640      	mov	r0, r8
    314c:	491a      	ldr	r1, [pc, #104]	; (31b8 <_scanf_float+0x3c8>)
    314e:	f000 fa95 	bl	367c <siprintf>
    3152:	4630      	mov	r0, r6
    3154:	4639      	mov	r1, r7
    3156:	2200      	movs	r2, #0
    3158:	f000 fb82 	bl	3860 <_strtod_r>
    315c:	6822      	ldr	r2, [r4, #0]
    315e:	4606      	mov	r6, r0
    3160:	f012 0f02 	tst.w	r2, #2
    3164:	460f      	mov	r7, r1
    3166:	f8d9 3000 	ldr.w	r3, [r9]
    316a:	d003      	beq.n	3174 <_scanf_float+0x384>
    316c:	1d1a      	adds	r2, r3, #4
    316e:	f8c9 2000 	str.w	r2, [r9]
    3172:	e006      	b.n	3182 <_scanf_float+0x392>
    3174:	f012 0f04 	tst.w	r2, #4
    3178:	f103 0204 	add.w	r2, r3, #4
    317c:	f8c9 2000 	str.w	r2, [r9]
    3180:	d003      	beq.n	318a <_scanf_float+0x39a>
    3182:	681b      	ldr	r3, [r3, #0]
    3184:	e9c3 6700 	strd	r6, r7, [r3]
    3188:	e00d      	b.n	31a6 <_scanf_float+0x3b6>
    318a:	f8d3 8000 	ldr.w	r8, [r3]
    318e:	f000 f977 	bl	3480 <__fpclassifyd>
    3192:	b910      	cbnz	r0, 319a <_scanf_float+0x3aa>
    3194:	f000 fa6e 	bl	3674 <nanf>
    3198:	e003      	b.n	31a2 <_scanf_float+0x3b2>
    319a:	4630      	mov	r0, r6
    319c:	4639      	mov	r1, r7
    319e:	f004 f94d 	bl	743c <__aeabi_d2f>
    31a2:	f8c8 0000 	str.w	r0, [r8]
    31a6:	68e3      	ldr	r3, [r4, #12]
    31a8:	3301      	adds	r3, #1
    31aa:	60e3      	str	r3, [r4, #12]
    31ac:	e000      	b.n	31b0 <_scanf_float+0x3c0>
    31ae:	2500      	movs	r5, #0
    31b0:	4628      	mov	r0, r5
    31b2:	b007      	add	sp, #28
    31b4:	e8bd 8ff0 	ldmia.w	sp!, {r4, r5, r6, r7, r8, r9, sl, fp, pc}
    31b8:	00007c13 	.word	0x00007c13

000031bc <_scanf_chars>:
    31bc:	e92d 41f0 	stmdb	sp!, {r4, r5, r6, r7, r8, lr}
    31c0:	4615      	mov	r5, r2
    31c2:	688a      	ldr	r2, [r1, #8]
    31c4:	4680      	mov	r8, r0
    31c6:	460c      	mov	r4, r1
    31c8:	b932      	cbnz	r2, 31d8 <_scanf_chars+0x1c>
    31ca:	698a      	ldr	r2, [r1, #24]
    31cc:	2a00      	cmp	r2, #0
    31ce:	bf0c      	ite	eq
    31d0:	2201      	moveq	r2, #1
    31d2:	f04f 32ff 	movne.w	r2, #4294967295
    31d6:	608a      	str	r2, [r1, #8]
    31d8:	6822      	ldr	r2, [r4, #0]
    31da:	2600      	movs	r6, #0
    31dc:	06d1      	lsls	r1, r2, #27
    31de:	bf5f      	itttt	pl
    31e0:	681a      	ldrpl	r2, [r3, #0]
    31e2:	1d11      	addpl	r1, r2, #4
    31e4:	6019      	strpl	r1, [r3, #0]
    31e6:	6817      	ldrpl	r7, [r2, #0]
    31e8:	69a0      	ldr	r0, [r4, #24]
    31ea:	b9f8      	cbnz	r0, 322c <_scanf_chars+0x70>
    31ec:	6823      	ldr	r3, [r4, #0]
    31ee:	3601      	adds	r6, #1
    31f0:	06da      	lsls	r2, r3, #27
    31f2:	bf5e      	ittt	pl
    31f4:	682b      	ldrpl	r3, [r5, #0]
    31f6:	781b      	ldrbpl	r3, [r3, #0]
    31f8:	703b      	strbpl	r3, [r7, #0]
    31fa:	682a      	ldr	r2, [r5, #0]
    31fc:	686b      	ldr	r3, [r5, #4]
    31fe:	f102 0201 	add.w	r2, r2, #1
    3202:	602a      	str	r2, [r5, #0]
    3204:	68a2      	ldr	r2, [r4, #8]
    3206:	f103 33ff 	add.w	r3, r3, #4294967295
    320a:	f102 32ff 	add.w	r2, r2, #4294967295
    320e:	606b      	str	r3, [r5, #4]
    3210:	bf58      	it	pl
    3212:	3701      	addpl	r7, #1
    3214:	60a2      	str	r2, [r4, #8]
    3216:	b1ea      	cbz	r2, 3254 <_scanf_chars+0x98>
    3218:	2b00      	cmp	r3, #0
    321a:	dce5      	bgt.n	31e8 <_scanf_chars+0x2c>
    321c:	f8d4 3180 	ldr.w	r3, [r4, #384]	; 0x180
    3220:	4640      	mov	r0, r8
    3222:	4629      	mov	r1, r5
    3224:	4798      	blx	r3
    3226:	2800      	cmp	r0, #0
    3228:	d0de      	beq.n	31e8 <_scanf_chars+0x2c>
    322a:	e013      	b.n	3254 <_scanf_chars+0x98>
    322c:	2801      	cmp	r0, #1
    322e:	d107      	bne.n	3240 <_scanf_chars+0x84>
    3230:	682b      	ldr	r3, [r5, #0]
    3232:	6962      	ldr	r2, [r4, #20]
    3234:	781b      	ldrb	r3, [r3, #0]
    3236:	5cd3      	ldrb	r3, [r2, r3]
    3238:	2b00      	cmp	r3, #0
    323a:	d1d7      	bne.n	31ec <_scanf_chars+0x30>
    323c:	b1c6      	cbz	r6, 3270 <_scanf_chars+0xb4>
    323e:	e009      	b.n	3254 <_scanf_chars+0x98>
    3240:	2802      	cmp	r0, #2
    3242:	d107      	bne.n	3254 <_scanf_chars+0x98>
    3244:	682b      	ldr	r3, [r5, #0]
    3246:	4a0b      	ldr	r2, [pc, #44]	; (3274 <_scanf_chars+0xb8>)
    3248:	781b      	ldrb	r3, [r3, #0]
    324a:	6812      	ldr	r2, [r2, #0]
    324c:	4413      	add	r3, r2
    324e:	785b      	ldrb	r3, [r3, #1]
    3250:	071b      	lsls	r3, r3, #28
    3252:	d5cb      	bpl.n	31ec <_scanf_chars+0x30>
    3254:	6823      	ldr	r3, [r4, #0]
    3256:	f013 0310 	ands.w	r3, r3, #16
    325a:	d105      	bne.n	3268 <_scanf_chars+0xac>
    325c:	68e2      	ldr	r2, [r4, #12]
    325e:	3201      	adds	r2, #1
    3260:	60e2      	str	r2, [r4, #12]
    3262:	69a2      	ldr	r2, [r4, #24]
    3264:	b102      	cbz	r2, 3268 <_scanf_chars+0xac>
    3266:	703b      	strb	r3, [r7, #0]
    3268:	6923      	ldr	r3, [r4, #16]
    326a:	2000      	movs	r0, #0
    326c:	441e      	add	r6, r3
    326e:	6126      	str	r6, [r4, #16]
    3270:	e8bd 81f0 	ldmia.w	sp!, {r4, r5, r6, r7, r8, pc}
    3274:	10000138 	.word	0x10000138

00003278 <_scanf_i>:
    3278:	e92d 4ff0 	stmdb	sp!, {r4, r5, r6, r7, r8, r9, sl, fp, lr}
    327c:	460c      	mov	r4, r1
    327e:	469a      	mov	sl, r3
    3280:	4b72      	ldr	r3, [pc, #456]	; (344c <_scanf_i+0x1d4>)
    3282:	b087      	sub	sp, #28
    3284:	4683      	mov	fp, r0
    3286:	4616      	mov	r6, r2
    3288:	e893 0007 	ldmia.w	r3, {r0, r1, r2}
    328c:	ab03      	add	r3, sp, #12
    328e:	e883 0007 	stmia.w	r3, {r0, r1, r2}
    3292:	4b6f      	ldr	r3, [pc, #444]	; (3450 <_scanf_i+0x1d8>)
    3294:	69a1      	ldr	r1, [r4, #24]
    3296:	4a6f      	ldr	r2, [pc, #444]	; (3454 <_scanf_i+0x1dc>)
    3298:	f104 091c 	add.w	r9, r4, #28
    329c:	2903      	cmp	r1, #3
    329e:	bf18      	it	ne
    32a0:	461a      	movne	r2, r3
    32a2:	68a3      	ldr	r3, [r4, #8]
    32a4:	9200      	str	r2, [sp, #0]
    32a6:	1e5a      	subs	r2, r3, #1
    32a8:	f5b2 7fae 	cmp.w	r2, #348	; 0x15c
    32ac:	bf82      	ittt	hi
    32ae:	f46f 75ae 	mvnhi.w	r5, #348	; 0x15c
    32b2:	eb03 0805 	addhi.w	r8, r3, r5
    32b6:	f240 135d 	movwhi	r3, #349	; 0x15d
    32ba:	464f      	mov	r7, r9
    32bc:	bf88      	it	hi
    32be:	60a3      	strhi	r3, [r4, #8]
    32c0:	6823      	ldr	r3, [r4, #0]
    32c2:	bf98      	it	ls
    32c4:	f04f 0800 	movls.w	r8, #0
    32c8:	f443 6350 	orr.w	r3, r3, #3328	; 0xd00
    32cc:	6023      	str	r3, [r4, #0]
    32ce:	2300      	movs	r3, #0
    32d0:	6832      	ldr	r2, [r6, #0]
    32d2:	a903      	add	r1, sp, #12
    32d4:	f851 0023 	ldr.w	r0, [r1, r3, lsl #2]
    32d8:	7811      	ldrb	r1, [r2, #0]
    32da:	2202      	movs	r2, #2
    32dc:	9301      	str	r3, [sp, #4]
    32de:	f7fe ff29 	bl	2134 <memchr>
    32e2:	9b01      	ldr	r3, [sp, #4]
    32e4:	2800      	cmp	r0, #0
    32e6:	d035      	beq.n	3354 <_scanf_i+0xdc>
    32e8:	2b01      	cmp	r3, #1
    32ea:	d10b      	bne.n	3304 <_scanf_i+0x8c>
    32ec:	6862      	ldr	r2, [r4, #4]
    32ee:	b92a      	cbnz	r2, 32fc <_scanf_i+0x84>
    32f0:	2208      	movs	r2, #8
    32f2:	6062      	str	r2, [r4, #4]
    32f4:	6822      	ldr	r2, [r4, #0]
    32f6:	f442 7200 	orr.w	r2, r2, #512	; 0x200
    32fa:	6022      	str	r2, [r4, #0]
    32fc:	6822      	ldr	r2, [r4, #0]
    32fe:	f422 62a0 	bic.w	r2, r2, #1280	; 0x500
    3302:	e00b      	b.n	331c <_scanf_i+0xa4>
    3304:	2b02      	cmp	r3, #2
    3306:	d10a      	bne.n	331e <_scanf_i+0xa6>
    3308:	6822      	ldr	r2, [r4, #0]
    330a:	f402 61c0 	and.w	r1, r2, #1536	; 0x600
    330e:	f5b1 7f00 	cmp.w	r1, #512	; 0x200
    3312:	d11f      	bne.n	3354 <_scanf_i+0xdc>
    3314:	2110      	movs	r1, #16
    3316:	6061      	str	r1, [r4, #4]
    3318:	f442 7280 	orr.w	r2, r2, #256	; 0x100
    331c:	6022      	str	r2, [r4, #0]
    331e:	68a2      	ldr	r2, [r4, #8]
    3320:	1e51      	subs	r1, r2, #1
    3322:	60a1      	str	r1, [r4, #8]
    3324:	b1b2      	cbz	r2, 3354 <_scanf_i+0xdc>
    3326:	6832      	ldr	r2, [r6, #0]
    3328:	1c7d      	adds	r5, r7, #1
    332a:	1c51      	adds	r1, r2, #1
    332c:	6031      	str	r1, [r6, #0]
    332e:	7812      	ldrb	r2, [r2, #0]
    3330:	703a      	strb	r2, [r7, #0]
    3332:	6872      	ldr	r2, [r6, #4]
    3334:	3a01      	subs	r2, #1
    3336:	2a00      	cmp	r2, #0
    3338:	6072      	str	r2, [r6, #4]
    333a:	dc0a      	bgt.n	3352 <_scanf_i+0xda>
    333c:	f8d4 2180 	ldr.w	r2, [r4, #384]	; 0x180
    3340:	4658      	mov	r0, fp
    3342:	4631      	mov	r1, r6
    3344:	9301      	str	r3, [sp, #4]
    3346:	4790      	blx	r2
    3348:	2800      	cmp	r0, #0
    334a:	d141      	bne.n	33d0 <_scanf_i+0x158>
    334c:	462f      	mov	r7, r5
    334e:	9b01      	ldr	r3, [sp, #4]
    3350:	e000      	b.n	3354 <_scanf_i+0xdc>
    3352:	462f      	mov	r7, r5
    3354:	3301      	adds	r3, #1
    3356:	2b03      	cmp	r3, #3
    3358:	d1ba      	bne.n	32d0 <_scanf_i+0x58>
    335a:	6863      	ldr	r3, [r4, #4]
    335c:	b90b      	cbnz	r3, 3362 <_scanf_i+0xea>
    335e:	230a      	movs	r3, #10
    3360:	6063      	str	r3, [r4, #4]
    3362:	6863      	ldr	r3, [r4, #4]
    3364:	493c      	ldr	r1, [pc, #240]	; (3458 <_scanf_i+0x1e0>)
    3366:	6960      	ldr	r0, [r4, #20]
    3368:	1ac9      	subs	r1, r1, r3
    336a:	f000 f8c1 	bl	34f0 <__sccl>
    336e:	463d      	mov	r5, r7
    3370:	2700      	movs	r7, #0
    3372:	68a3      	ldr	r3, [r4, #8]
    3374:	b36b      	cbz	r3, 33d2 <_scanf_i+0x15a>
    3376:	6831      	ldr	r1, [r6, #0]
    3378:	6960      	ldr	r0, [r4, #20]
    337a:	780a      	ldrb	r2, [r1, #0]
    337c:	5c80      	ldrb	r0, [r0, r2]
    337e:	b340      	cbz	r0, 33d2 <_scanf_i+0x15a>
    3380:	2a30      	cmp	r2, #48	; 0x30
    3382:	6822      	ldr	r2, [r4, #0]
    3384:	d10a      	bne.n	339c <_scanf_i+0x124>
    3386:	0510      	lsls	r0, r2, #20
    3388:	d508      	bpl.n	339c <_scanf_i+0x124>
    338a:	3701      	adds	r7, #1
    338c:	f1b8 0f00 	cmp.w	r8, #0
    3390:	d00b      	beq.n	33aa <_scanf_i+0x132>
    3392:	3301      	adds	r3, #1
    3394:	f108 38ff 	add.w	r8, r8, #4294967295
    3398:	60a3      	str	r3, [r4, #8]
    339a:	e006      	b.n	33aa <_scanf_i+0x132>
    339c:	f422 6210 	bic.w	r2, r2, #2304	; 0x900
    33a0:	6022      	str	r2, [r4, #0]
    33a2:	780b      	ldrb	r3, [r1, #0]
    33a4:	3501      	adds	r5, #1
    33a6:	f805 3c01 	strb.w	r3, [r5, #-1]
    33aa:	6873      	ldr	r3, [r6, #4]
    33ac:	3b01      	subs	r3, #1
    33ae:	2b00      	cmp	r3, #0
    33b0:	6073      	str	r3, [r6, #4]
    33b2:	dd03      	ble.n	33bc <_scanf_i+0x144>
    33b4:	6833      	ldr	r3, [r6, #0]
    33b6:	3301      	adds	r3, #1
    33b8:	6033      	str	r3, [r6, #0]
    33ba:	e005      	b.n	33c8 <_scanf_i+0x150>
    33bc:	f8d4 3180 	ldr.w	r3, [r4, #384]	; 0x180
    33c0:	4658      	mov	r0, fp
    33c2:	4631      	mov	r1, r6
    33c4:	4798      	blx	r3
    33c6:	b920      	cbnz	r0, 33d2 <_scanf_i+0x15a>
    33c8:	68a3      	ldr	r3, [r4, #8]
    33ca:	3b01      	subs	r3, #1
    33cc:	60a3      	str	r3, [r4, #8]
    33ce:	e7d0      	b.n	3372 <_scanf_i+0xfa>
    33d0:	2700      	movs	r7, #0
    33d2:	6823      	ldr	r3, [r4, #0]
    33d4:	05d9      	lsls	r1, r3, #23
    33d6:	d50d      	bpl.n	33f4 <_scanf_i+0x17c>
    33d8:	454d      	cmp	r5, r9
    33da:	d909      	bls.n	33f0 <_scanf_i+0x178>
    33dc:	f815 1c01 	ldrb.w	r1, [r5, #-1]
    33e0:	f105 38ff 	add.w	r8, r5, #4294967295
    33e4:	f8d4 317c 	ldr.w	r3, [r4, #380]	; 0x17c
    33e8:	4658      	mov	r0, fp
    33ea:	4632      	mov	r2, r6
    33ec:	4798      	blx	r3
    33ee:	4645      	mov	r5, r8
    33f0:	454d      	cmp	r5, r9
    33f2:	d027      	beq.n	3444 <_scanf_i+0x1cc>
    33f4:	6822      	ldr	r2, [r4, #0]
    33f6:	f012 0210 	ands.w	r2, r2, #16
    33fa:	d11b      	bne.n	3434 <_scanf_i+0x1bc>
    33fc:	702a      	strb	r2, [r5, #0]
    33fe:	6863      	ldr	r3, [r4, #4]
    3400:	4658      	mov	r0, fp
    3402:	4649      	mov	r1, r9
    3404:	9e00      	ldr	r6, [sp, #0]
    3406:	47b0      	blx	r6
    3408:	6822      	ldr	r2, [r4, #0]
    340a:	f8da 3000 	ldr.w	r3, [sl]
    340e:	f012 0f20 	tst.w	r2, #32
    3412:	d107      	bne.n	3424 <_scanf_i+0x1ac>
    3414:	07d2      	lsls	r2, r2, #31
    3416:	d505      	bpl.n	3424 <_scanf_i+0x1ac>
    3418:	1d1a      	adds	r2, r3, #4
    341a:	f8ca 2000 	str.w	r2, [sl]
    341e:	681b      	ldr	r3, [r3, #0]
    3420:	8018      	strh	r0, [r3, #0]
    3422:	e004      	b.n	342e <_scanf_i+0x1b6>
    3424:	1d1a      	adds	r2, r3, #4
    3426:	f8ca 2000 	str.w	r2, [sl]
    342a:	681b      	ldr	r3, [r3, #0]
    342c:	6018      	str	r0, [r3, #0]
    342e:	68e3      	ldr	r3, [r4, #12]
    3430:	3301      	adds	r3, #1
    3432:	60e3      	str	r3, [r4, #12]
    3434:	ebc9 0505 	rsb	r5, r9, r5
    3438:	443d      	add	r5, r7
    343a:	6927      	ldr	r7, [r4, #16]
    343c:	2000      	movs	r0, #0
    343e:	443d      	add	r5, r7
    3440:	6125      	str	r5, [r4, #16]
    3442:	e000      	b.n	3446 <_scanf_i+0x1ce>
    3444:	2001      	movs	r0, #1
    3446:	b007      	add	sp, #28
    3448:	e8bd 8ff0 	ldmia.w	sp!, {r4, r5, r6, r7, r8, r9, sl, fp, pc}
    344c:	00007c18 	.word	0x00007c18
    3450:	000045ad 	.word	0x000045ad
    3454:	000044a1 	.word	0x000044a1
    3458:	00007c34 	.word	0x00007c34

0000345c <_open_r>:
    345c:	b538      	push	{r3, r4, r5, lr}
    345e:	4c07      	ldr	r4, [pc, #28]	; (347c <_open_r+0x20>)
    3460:	4605      	mov	r5, r0
    3462:	2000      	movs	r0, #0
    3464:	6020      	str	r0, [r4, #0]
    3466:	4608      	mov	r0, r1
    3468:	4611      	mov	r1, r2
    346a:	461a      	mov	r2, r3
    346c:	f7fd f892 	bl	594 <_open>
    3470:	1c43      	adds	r3, r0, #1
    3472:	d102      	bne.n	347a <_open_r+0x1e>
    3474:	6823      	ldr	r3, [r4, #0]
    3476:	b103      	cbz	r3, 347a <_open_r+0x1e>
    3478:	602b      	str	r3, [r5, #0]
    347a:	bd38      	pop	{r3, r4, r5, pc}
    347c:	10000804 	.word	0x10000804

00003480 <__fpclassifyd>:
    3480:	f031 4300 	bics.w	r3, r1, #2147483648	; 0x80000000
    3484:	b510      	push	{r4, lr}
    3486:	d01b      	beq.n	34c0 <__fpclassifyd+0x40>
    3488:	4a0f      	ldr	r2, [pc, #60]	; (34c8 <__fpclassifyd+0x48>)
    348a:	f5a1 1480 	sub.w	r4, r1, #1048576	; 0x100000
    348e:	4294      	cmp	r4, r2
    3490:	d910      	bls.n	34b4 <__fpclassifyd+0x34>
    3492:	f101 41ff 	add.w	r1, r1, #2139095040	; 0x7f800000
    3496:	4a0c      	ldr	r2, [pc, #48]	; (34c8 <__fpclassifyd+0x48>)
    3498:	f501 01e0 	add.w	r1, r1, #7340032	; 0x700000
    349c:	4291      	cmp	r1, r2
    349e:	d909      	bls.n	34b4 <__fpclassifyd+0x34>
    34a0:	f5b3 1f80 	cmp.w	r3, #1048576	; 0x100000
    34a4:	d308      	bcc.n	34b8 <__fpclassifyd+0x38>
    34a6:	4a09      	ldr	r2, [pc, #36]	; (34cc <__fpclassifyd+0x4c>)
    34a8:	4293      	cmp	r3, r2
    34aa:	d107      	bne.n	34bc <__fpclassifyd+0x3c>
    34ac:	fab0 f080 	clz	r0, r0
    34b0:	0940      	lsrs	r0, r0, #5
    34b2:	bd10      	pop	{r4, pc}
    34b4:	2004      	movs	r0, #4
    34b6:	bd10      	pop	{r4, pc}
    34b8:	2003      	movs	r0, #3
    34ba:	bd10      	pop	{r4, pc}
    34bc:	2000      	movs	r0, #0
    34be:	bd10      	pop	{r4, pc}
    34c0:	2800      	cmp	r0, #0
    34c2:	d1e6      	bne.n	3492 <__fpclassifyd+0x12>
    34c4:	2002      	movs	r0, #2
    34c6:	bd10      	pop	{r4, pc}
    34c8:	7fdfffff 	.word	0x7fdfffff
    34cc:	7ff00000 	.word	0x7ff00000

000034d0 <_sbrk_r>:
    34d0:	b538      	push	{r3, r4, r5, lr}
    34d2:	4c06      	ldr	r4, [pc, #24]	; (34ec <_sbrk_r+0x1c>)
    34d4:	2300      	movs	r3, #0
    34d6:	4605      	mov	r5, r0
    34d8:	4608      	mov	r0, r1
    34da:	6023      	str	r3, [r4, #0]
    34dc:	f7fd f984 	bl	7e8 <_sbrk>
    34e0:	1c43      	adds	r3, r0, #1
    34e2:	d102      	bne.n	34ea <_sbrk_r+0x1a>
    34e4:	6823      	ldr	r3, [r4, #0]
    34e6:	b103      	cbz	r3, 34ea <_sbrk_r+0x1a>
    34e8:	602b      	str	r3, [r5, #0]
    34ea:	bd38      	pop	{r3, r4, r5, pc}
    34ec:	10000804 	.word	0x10000804

000034f0 <__sccl>:
    34f0:	b5f0      	push	{r4, r5, r6, r7, lr}
    34f2:	780a      	ldrb	r2, [r1, #0]
    34f4:	1e44      	subs	r4, r0, #1
    34f6:	2a5e      	cmp	r2, #94	; 0x5e
    34f8:	bf13      	iteet	ne
    34fa:	1c4b      	addne	r3, r1, #1
    34fc:	1c8b      	addeq	r3, r1, #2
    34fe:	784a      	ldrbeq	r2, [r1, #1]
    3500:	2100      	movne	r1, #0
    3502:	bf08      	it	eq
    3504:	2101      	moveq	r1, #1
    3506:	f100 05ff 	add.w	r5, r0, #255	; 0xff
    350a:	f804 1f01 	strb.w	r1, [r4, #1]!
    350e:	42ac      	cmp	r4, r5
    3510:	d1fb      	bne.n	350a <__sccl+0x1a>
    3512:	b90a      	cbnz	r2, 3518 <__sccl+0x28>
    3514:	1e58      	subs	r0, r3, #1
    3516:	bdf0      	pop	{r4, r5, r6, r7, pc}
    3518:	f1c1 0401 	rsb	r4, r1, #1
    351c:	b2e7      	uxtb	r7, r4
    351e:	5487      	strb	r7, [r0, r2]
    3520:	7819      	ldrb	r1, [r3, #0]
    3522:	1c5e      	adds	r6, r3, #1
    3524:	292d      	cmp	r1, #45	; 0x2d
    3526:	d005      	beq.n	3534 <__sccl+0x44>
    3528:	295d      	cmp	r1, #93	; 0x5d
    352a:	d00e      	beq.n	354a <__sccl+0x5a>
    352c:	b179      	cbz	r1, 354e <__sccl+0x5e>
    352e:	460a      	mov	r2, r1
    3530:	4633      	mov	r3, r6
    3532:	e7f3      	b.n	351c <__sccl+0x2c>
    3534:	785d      	ldrb	r5, [r3, #1]
    3536:	2d5d      	cmp	r5, #93	; 0x5d
    3538:	d0f9      	beq.n	352e <__sccl+0x3e>
    353a:	4295      	cmp	r5, r2
    353c:	dbf7      	blt.n	352e <__sccl+0x3e>
    353e:	3302      	adds	r3, #2
    3540:	3201      	adds	r2, #1
    3542:	42aa      	cmp	r2, r5
    3544:	5487      	strb	r7, [r0, r2]
    3546:	dbfb      	blt.n	3540 <__sccl+0x50>
    3548:	e7ea      	b.n	3520 <__sccl+0x30>
    354a:	4630      	mov	r0, r6
    354c:	bdf0      	pop	{r4, r5, r6, r7, pc}
    354e:	4618      	mov	r0, r3
    3550:	bdf0      	pop	{r4, r5, r6, r7, pc}

00003552 <setbuf>:
    3552:	2900      	cmp	r1, #0
    3554:	bf0c      	ite	eq
    3556:	2202      	moveq	r2, #2
    3558:	2200      	movne	r2, #0
    355a:	f44f 6380 	mov.w	r3, #1024	; 0x400
    355e:	f000 b801 	b.w	3564 <setvbuf>
	...

00003564 <setvbuf>:
    3564:	e92d 41f0 	stmdb	sp!, {r4, r5, r6, r7, r8, lr}
    3568:	461d      	mov	r5, r3
    356a:	4b3d      	ldr	r3, [pc, #244]	; (3660 <setvbuf+0xfc>)
    356c:	4604      	mov	r4, r0
    356e:	681e      	ldr	r6, [r3, #0]
    3570:	460f      	mov	r7, r1
    3572:	4690      	mov	r8, r2
    3574:	b126      	cbz	r6, 3580 <setvbuf+0x1c>
    3576:	69b3      	ldr	r3, [r6, #24]
    3578:	b913      	cbnz	r3, 3580 <setvbuf+0x1c>
    357a:	4630      	mov	r0, r6
    357c:	f7fe fbe4 	bl	1d48 <__sinit>
    3580:	4b38      	ldr	r3, [pc, #224]	; (3664 <setvbuf+0x100>)
    3582:	429c      	cmp	r4, r3
    3584:	d101      	bne.n	358a <setvbuf+0x26>
    3586:	6874      	ldr	r4, [r6, #4]
    3588:	e008      	b.n	359c <setvbuf+0x38>
    358a:	4b37      	ldr	r3, [pc, #220]	; (3668 <setvbuf+0x104>)
    358c:	429c      	cmp	r4, r3
    358e:	d101      	bne.n	3594 <setvbuf+0x30>
    3590:	68b4      	ldr	r4, [r6, #8]
    3592:	e003      	b.n	359c <setvbuf+0x38>
    3594:	4b35      	ldr	r3, [pc, #212]	; (366c <setvbuf+0x108>)
    3596:	429c      	cmp	r4, r3
    3598:	bf08      	it	eq
    359a:	68f4      	ldreq	r4, [r6, #12]
    359c:	f1b8 0f02 	cmp.w	r8, #2
    35a0:	d85a      	bhi.n	3658 <setvbuf+0xf4>
    35a2:	2d00      	cmp	r5, #0
    35a4:	db58      	blt.n	3658 <setvbuf+0xf4>
    35a6:	4630      	mov	r0, r6
    35a8:	4621      	mov	r1, r4
    35aa:	f7fe fb51 	bl	1c50 <_fflush_r>
    35ae:	2300      	movs	r3, #0
    35b0:	6063      	str	r3, [r4, #4]
    35b2:	61a3      	str	r3, [r4, #24]
    35b4:	89a3      	ldrh	r3, [r4, #12]
    35b6:	061b      	lsls	r3, r3, #24
    35b8:	d503      	bpl.n	35c2 <setvbuf+0x5e>
    35ba:	4630      	mov	r0, r6
    35bc:	6921      	ldr	r1, [r4, #16]
    35be:	f7fe fddb 	bl	2178 <_free_r>
    35c2:	89a3      	ldrh	r3, [r4, #12]
    35c4:	f1b8 0f02 	cmp.w	r8, #2
    35c8:	f023 0383 	bic.w	r3, r3, #131	; 0x83
    35cc:	81a3      	strh	r3, [r4, #12]
    35ce:	d012      	beq.n	35f6 <setvbuf+0x92>
    35d0:	bb37      	cbnz	r7, 3620 <setvbuf+0xbc>
    35d2:	2d00      	cmp	r5, #0
    35d4:	bf08      	it	eq
    35d6:	f44f 6580 	moveq.w	r5, #1024	; 0x400
    35da:	4628      	mov	r0, r5
    35dc:	f7fe fd9a 	bl	2114 <malloc>
    35e0:	4607      	mov	r7, r0
    35e2:	b9c8      	cbnz	r0, 3618 <setvbuf+0xb4>
    35e4:	f44f 6080 	mov.w	r0, #1024	; 0x400
    35e8:	f7fe fd94 	bl	2114 <malloc>
    35ec:	4607      	mov	r7, r0
    35ee:	b988      	cbnz	r0, 3614 <setvbuf+0xb0>
    35f0:	f04f 30ff 	mov.w	r0, #4294967295
    35f4:	e000      	b.n	35f8 <setvbuf+0x94>
    35f6:	2000      	movs	r0, #0
    35f8:	89a3      	ldrh	r3, [r4, #12]
    35fa:	f043 0302 	orr.w	r3, r3, #2
    35fe:	81a3      	strh	r3, [r4, #12]
    3600:	2300      	movs	r3, #0
    3602:	60a3      	str	r3, [r4, #8]
    3604:	f104 0347 	add.w	r3, r4, #71	; 0x47
    3608:	6023      	str	r3, [r4, #0]
    360a:	6123      	str	r3, [r4, #16]
    360c:	2301      	movs	r3, #1
    360e:	6163      	str	r3, [r4, #20]
    3610:	e8bd 81f0 	ldmia.w	sp!, {r4, r5, r6, r7, r8, pc}
    3614:	f44f 6580 	mov.w	r5, #1024	; 0x400
    3618:	89a3      	ldrh	r3, [r4, #12]
    361a:	f043 0380 	orr.w	r3, r3, #128	; 0x80
    361e:	81a3      	strh	r3, [r4, #12]
    3620:	f1b8 0f01 	cmp.w	r8, #1
    3624:	bf01      	itttt	eq
    3626:	89a3      	ldrheq	r3, [r4, #12]
    3628:	f043 0301 	orreq.w	r3, r3, #1
    362c:	81a3      	strheq	r3, [r4, #12]
    362e:	426b      	negeq	r3, r5
    3630:	bf08      	it	eq
    3632:	61a3      	streq	r3, [r4, #24]
    3634:	4b0e      	ldr	r3, [pc, #56]	; (3670 <setvbuf+0x10c>)
    3636:	62b3      	str	r3, [r6, #40]	; 0x28
    3638:	89a3      	ldrh	r3, [r4, #12]
    363a:	6027      	str	r7, [r4, #0]
    363c:	f003 0008 	and.w	r0, r3, #8
    3640:	b280      	uxth	r0, r0
    3642:	6127      	str	r7, [r4, #16]
    3644:	6165      	str	r5, [r4, #20]
    3646:	b148      	cbz	r0, 365c <setvbuf+0xf8>
    3648:	f013 0f03 	tst.w	r3, #3
    364c:	bf18      	it	ne
    364e:	2500      	movne	r5, #0
    3650:	60a5      	str	r5, [r4, #8]
    3652:	2000      	movs	r0, #0
    3654:	e8bd 81f0 	ldmia.w	sp!, {r4, r5, r6, r7, r8, pc}
    3658:	f04f 30ff 	mov.w	r0, #4294967295
    365c:	e8bd 81f0 	ldmia.w	sp!, {r4, r5, r6, r7, r8, pc}
    3660:	10000134 	.word	0x10000134
    3664:	00007b68 	.word	0x00007b68
    3668:	00007b88 	.word	0x00007b88
    366c:	00007ba8 	.word	0x00007ba8
    3670:	00001cc9 	.word	0x00001cc9

00003674 <nanf>:
    3674:	4800      	ldr	r0, [pc, #0]	; (3678 <nanf+0x4>)
    3676:	4770      	bx	lr
    3678:	7fc00000 	.word	0x7fc00000

0000367c <siprintf>:
    367c:	b40e      	push	{r1, r2, r3}
    367e:	b500      	push	{lr}
    3680:	f44f 7102 	mov.w	r1, #520	; 0x208
    3684:	b09c      	sub	sp, #112	; 0x70
    3686:	f8ad 1014 	strh.w	r1, [sp, #20]
    368a:	f06f 4100 	mvn.w	r1, #2147483648	; 0x80000000
    368e:	9104      	str	r1, [sp, #16]
    3690:	9107      	str	r1, [sp, #28]
    3692:	f64f 71ff 	movw	r1, #65535	; 0xffff
    3696:	ab1d      	add	r3, sp, #116	; 0x74
    3698:	f8ad 1016 	strh.w	r1, [sp, #22]
    369c:	4908      	ldr	r1, [pc, #32]	; (36c0 <siprintf+0x44>)
    369e:	f853 2b04 	ldr.w	r2, [r3], #4
    36a2:	9002      	str	r0, [sp, #8]
    36a4:	9006      	str	r0, [sp, #24]
    36a6:	6808      	ldr	r0, [r1, #0]
    36a8:	a902      	add	r1, sp, #8
    36aa:	9301      	str	r3, [sp, #4]
    36ac:	f002 ff76 	bl	659c <_svfiprintf_r>
    36b0:	9b02      	ldr	r3, [sp, #8]
    36b2:	2200      	movs	r2, #0
    36b4:	701a      	strb	r2, [r3, #0]
    36b6:	b01c      	add	sp, #112	; 0x70
    36b8:	f85d eb04 	ldr.w	lr, [sp], #4
    36bc:	b003      	add	sp, #12
    36be:	4770      	bx	lr
    36c0:	10000134 	.word	0x10000134

000036c4 <siscanf>:
    36c4:	b40e      	push	{r1, r2, r3}
    36c6:	b530      	push	{r4, r5, lr}
    36c8:	b09c      	sub	sp, #112	; 0x70
    36ca:	ac1f      	add	r4, sp, #124	; 0x7c
    36cc:	f44f 7201 	mov.w	r2, #516	; 0x204
    36d0:	f854 5b04 	ldr.w	r5, [r4], #4
    36d4:	f8ad 2014 	strh.w	r2, [sp, #20]
    36d8:	9002      	str	r0, [sp, #8]
    36da:	9006      	str	r0, [sp, #24]
    36dc:	f000 f86b 	bl	37b6 <strlen>
    36e0:	4b0b      	ldr	r3, [pc, #44]	; (3710 <siscanf+0x4c>)
    36e2:	9003      	str	r0, [sp, #12]
    36e4:	930b      	str	r3, [sp, #44]	; 0x2c
    36e6:	2300      	movs	r3, #0
    36e8:	930f      	str	r3, [sp, #60]	; 0x3c
    36ea:	9314      	str	r3, [sp, #80]	; 0x50
    36ec:	f64f 73ff 	movw	r3, #65535	; 0xffff
    36f0:	f8ad 3016 	strh.w	r3, [sp, #22]
    36f4:	4b07      	ldr	r3, [pc, #28]	; (3714 <siscanf+0x50>)
    36f6:	9007      	str	r0, [sp, #28]
    36f8:	a902      	add	r1, sp, #8
    36fa:	6818      	ldr	r0, [r3, #0]
    36fc:	462a      	mov	r2, r5
    36fe:	4623      	mov	r3, r4
    3700:	9401      	str	r4, [sp, #4]
    3702:	f003 f897 	bl	6834 <__ssvfiscanf_r>
    3706:	b01c      	add	sp, #112	; 0x70
    3708:	e8bd 4030 	ldmia.w	sp!, {r4, r5, lr}
    370c:	b003      	add	sp, #12
    370e:	4770      	bx	lr
    3710:	0000373b 	.word	0x0000373b
    3714:	10000134 	.word	0x10000134

00003718 <__sread>:
    3718:	b510      	push	{r4, lr}
    371a:	460c      	mov	r4, r1
    371c:	f9b1 100e 	ldrsh.w	r1, [r1, #14]
    3720:	f003 f9d6 	bl	6ad0 <_read_r>
    3724:	2800      	cmp	r0, #0
    3726:	bfab      	itete	ge
    3728:	6d63      	ldrge	r3, [r4, #84]	; 0x54
    372a:	89a3      	ldrhlt	r3, [r4, #12]
    372c:	181b      	addge	r3, r3, r0
    372e:	f423 5380 	biclt.w	r3, r3, #4096	; 0x1000
    3732:	bfac      	ite	ge
    3734:	6563      	strge	r3, [r4, #84]	; 0x54
    3736:	81a3      	strhlt	r3, [r4, #12]
    3738:	bd10      	pop	{r4, pc}

0000373a <__seofread>:
    373a:	2000      	movs	r0, #0
    373c:	4770      	bx	lr

0000373e <__swrite>:
    373e:	e92d 41f0 	stmdb	sp!, {r4, r5, r6, r7, r8, lr}
    3742:	461d      	mov	r5, r3
    3744:	898b      	ldrh	r3, [r1, #12]
    3746:	4607      	mov	r7, r0
    3748:	05db      	lsls	r3, r3, #23
    374a:	460c      	mov	r4, r1
    374c:	4616      	mov	r6, r2
    374e:	d505      	bpl.n	375c <__swrite+0x1e>
    3750:	f9b1 100e 	ldrsh.w	r1, [r1, #14]
    3754:	2200      	movs	r2, #0
    3756:	2302      	movs	r3, #2
    3758:	f002 fa70 	bl	5c3c <_lseek_r>
    375c:	89a3      	ldrh	r3, [r4, #12]
    375e:	4638      	mov	r0, r7
    3760:	f423 5380 	bic.w	r3, r3, #4096	; 0x1000
    3764:	81a3      	strh	r3, [r4, #12]
    3766:	f9b4 100e 	ldrsh.w	r1, [r4, #14]
    376a:	4632      	mov	r2, r6
    376c:	462b      	mov	r3, r5
    376e:	e8bd 41f0 	ldmia.w	sp!, {r4, r5, r6, r7, r8, lr}
    3772:	f001 b825 	b.w	47c0 <_write_r>

00003776 <__sseek>:
    3776:	b510      	push	{r4, lr}
    3778:	460c      	mov	r4, r1
    377a:	f9b1 100e 	ldrsh.w	r1, [r1, #14]
    377e:	f002 fa5d 	bl	5c3c <_lseek_r>
    3782:	1c43      	adds	r3, r0, #1
    3784:	89a3      	ldrh	r3, [r4, #12]
    3786:	bf15      	itete	ne
    3788:	6560      	strne	r0, [r4, #84]	; 0x54
    378a:	f423 5380 	biceq.w	r3, r3, #4096	; 0x1000
    378e:	f443 5380 	orrne.w	r3, r3, #4096	; 0x1000
    3792:	81a3      	strheq	r3, [r4, #12]
    3794:	bf18      	it	ne
    3796:	81a3      	strhne	r3, [r4, #12]
    3798:	bd10      	pop	{r4, pc}

0000379a <__sclose>:
    379a:	f9b1 100e 	ldrsh.w	r1, [r1, #14]
    379e:	f001 b88d 	b.w	48bc <_close_r>

000037a2 <strcmp>:
    37a2:	f810 2b01 	ldrb.w	r2, [r0], #1
    37a6:	f811 3b01 	ldrb.w	r3, [r1], #1
    37aa:	2a01      	cmp	r2, #1
    37ac:	bf28      	it	cs
    37ae:	429a      	cmpcs	r2, r3
    37b0:	d0f7      	beq.n	37a2 <strcmp>
    37b2:	1ad0      	subs	r0, r2, r3
    37b4:	4770      	bx	lr

000037b6 <strlen>:
    37b6:	4603      	mov	r3, r0
    37b8:	f813 2b01 	ldrb.w	r2, [r3], #1
    37bc:	2a00      	cmp	r2, #0
    37be:	d1fb      	bne.n	37b8 <strlen+0x2>
    37c0:	1a18      	subs	r0, r3, r0
    37c2:	3801      	subs	r0, #1
    37c4:	4770      	bx	lr

000037c6 <strncmp>:
    37c6:	b570      	push	{r4, r5, r6, lr}
    37c8:	b1a2      	cbz	r2, 37f4 <strncmp+0x2e>
    37ca:	1e45      	subs	r5, r0, #1
    37cc:	3901      	subs	r1, #1
    37ce:	786b      	ldrb	r3, [r5, #1]
    37d0:	f811 4f01 	ldrb.w	r4, [r1, #1]!
    37d4:	1c6e      	adds	r6, r5, #1
    37d6:	42a3      	cmp	r3, r4
    37d8:	d106      	bne.n	37e8 <strncmp+0x22>
    37da:	f06f 0401 	mvn.w	r4, #1
    37de:	1b64      	subs	r4, r4, r5
    37e0:	4414      	add	r4, r2
    37e2:	42e0      	cmn	r0, r4
    37e4:	d102      	bne.n	37ec <strncmp+0x26>
    37e6:	461c      	mov	r4, r3
    37e8:	1b18      	subs	r0, r3, r4
    37ea:	bd70      	pop	{r4, r5, r6, pc}
    37ec:	4635      	mov	r5, r6
    37ee:	2b00      	cmp	r3, #0
    37f0:	d1ed      	bne.n	37ce <strncmp+0x8>
    37f2:	e7f8      	b.n	37e6 <strncmp+0x20>
    37f4:	4610      	mov	r0, r2
    37f6:	bd70      	pop	{r4, r5, r6, pc}

000037f8 <match>:
    37f8:	b530      	push	{r4, r5, lr}
    37fa:	6803      	ldr	r3, [r0, #0]
    37fc:	f811 4b01 	ldrb.w	r4, [r1], #1
    3800:	3301      	adds	r3, #1
    3802:	b14c      	cbz	r4, 3818 <match+0x20>
    3804:	781a      	ldrb	r2, [r3, #0]
    3806:	f1a2 0541 	sub.w	r5, r2, #65	; 0x41
    380a:	2d19      	cmp	r5, #25
    380c:	bf98      	it	ls
    380e:	3220      	addls	r2, #32
    3810:	42a2      	cmp	r2, r4
    3812:	d0f3      	beq.n	37fc <match+0x4>
    3814:	2000      	movs	r0, #0
    3816:	bd30      	pop	{r4, r5, pc}
    3818:	6003      	str	r3, [r0, #0]
    381a:	2001      	movs	r0, #1
    381c:	bd30      	pop	{r4, r5, pc}

0000381e <sulp>:
    381e:	e92d 41f0 	stmdb	sp!, {r4, r5, r6, r7, r8, lr}
    3822:	460f      	mov	r7, r1
    3824:	4690      	mov	r8, r2
    3826:	f002 fd03 	bl	6230 <__ulp>
    382a:	4604      	mov	r4, r0
    382c:	460d      	mov	r5, r1
    382e:	f1b8 0f00 	cmp.w	r8, #0
    3832:	d011      	beq.n	3858 <sulp+0x3a>
    3834:	f3c7 530a 	ubfx	r3, r7, #20, #11
    3838:	f1c3 036b 	rsb	r3, r3, #107	; 0x6b
    383c:	2b00      	cmp	r3, #0
    383e:	dd0b      	ble.n	3858 <sulp+0x3a>
    3840:	051b      	lsls	r3, r3, #20
    3842:	f103 557f 	add.w	r5, r3, #1069547520	; 0x3fc00000
    3846:	2400      	movs	r4, #0
    3848:	f505 1540 	add.w	r5, r5, #3145728	; 0x300000
    384c:	4622      	mov	r2, r4
    384e:	462b      	mov	r3, r5
    3850:	f003 fb12 	bl	6e78 <__aeabi_dmul>
    3854:	e8bd 81f0 	ldmia.w	sp!, {r4, r5, r6, r7, r8, pc}
    3858:	4620      	mov	r0, r4
    385a:	4629      	mov	r1, r5
    385c:	e8bd 81f0 	ldmia.w	sp!, {r4, r5, r6, r7, r8, pc}

00003860 <_strtod_r>:
    3860:	e92d 4ff0 	stmdb	sp!, {r4, r5, r6, r7, r8, r9, sl, fp, lr}
    3864:	2300      	movs	r3, #0
    3866:	b09f      	sub	sp, #124	; 0x7c
    3868:	931a      	str	r3, [sp, #104]	; 0x68
    386a:	4682      	mov	sl, r0
    386c:	460b      	mov	r3, r1
    386e:	9103      	str	r1, [sp, #12]
    3870:	9215      	str	r2, [sp, #84]	; 0x54
    3872:	f04f 0800 	mov.w	r8, #0
    3876:	f04f 0900 	mov.w	r9, #0
    387a:	9319      	str	r3, [sp, #100]	; 0x64
    387c:	9b19      	ldr	r3, [sp, #100]	; 0x64
    387e:	781a      	ldrb	r2, [r3, #0]
    3880:	2a0d      	cmp	r2, #13
    3882:	d805      	bhi.n	3890 <_strtod_r+0x30>
    3884:	2a09      	cmp	r2, #9
    3886:	d213      	bcs.n	38b0 <_strtod_r+0x50>
    3888:	2a00      	cmp	r2, #0
    388a:	f000 81b7 	beq.w	3bfc <_strtod_r+0x39c>
    388e:	e011      	b.n	38b4 <_strtod_r+0x54>
    3890:	2a2b      	cmp	r2, #43	; 0x2b
    3892:	d006      	beq.n	38a2 <_strtod_r+0x42>
    3894:	2a2d      	cmp	r2, #45	; 0x2d
    3896:	d002      	beq.n	389e <_strtod_r+0x3e>
    3898:	2a20      	cmp	r2, #32
    389a:	d10b      	bne.n	38b4 <_strtod_r+0x54>
    389c:	e008      	b.n	38b0 <_strtod_r+0x50>
    389e:	2201      	movs	r2, #1
    38a0:	e000      	b.n	38a4 <_strtod_r+0x44>
    38a2:	2200      	movs	r2, #0
    38a4:	9209      	str	r2, [sp, #36]	; 0x24
    38a6:	1c5a      	adds	r2, r3, #1
    38a8:	9219      	str	r2, [sp, #100]	; 0x64
    38aa:	785b      	ldrb	r3, [r3, #1]
    38ac:	b923      	cbnz	r3, 38b8 <_strtod_r+0x58>
    38ae:	e1a5      	b.n	3bfc <_strtod_r+0x39c>
    38b0:	3301      	adds	r3, #1
    38b2:	e7e2      	b.n	387a <_strtod_r+0x1a>
    38b4:	2300      	movs	r3, #0
    38b6:	9309      	str	r3, [sp, #36]	; 0x24
    38b8:	9c19      	ldr	r4, [sp, #100]	; 0x64
    38ba:	7823      	ldrb	r3, [r4, #0]
    38bc:	2b30      	cmp	r3, #48	; 0x30
    38be:	d15c      	bne.n	397a <_strtod_r+0x11a>
    38c0:	7863      	ldrb	r3, [r4, #1]
    38c2:	2b58      	cmp	r3, #88	; 0x58
    38c4:	d001      	beq.n	38ca <_strtod_r+0x6a>
    38c6:	2b78      	cmp	r3, #120	; 0x78
    38c8:	d14c      	bne.n	3964 <_strtod_r+0x104>
    38ca:	ab1a      	add	r3, sp, #104	; 0x68
    38cc:	9300      	str	r3, [sp, #0]
    38ce:	9b09      	ldr	r3, [sp, #36]	; 0x24
    38d0:	4650      	mov	r0, sl
    38d2:	9301      	str	r3, [sp, #4]
    38d4:	a919      	add	r1, sp, #100	; 0x64
    38d6:	4aae      	ldr	r2, [pc, #696]	; (3b90 <_strtod_r+0x330>)
    38d8:	ab1b      	add	r3, sp, #108	; 0x6c
    38da:	f001 feda 	bl	5692 <__gethex>
    38de:	f010 0607 	ands.w	r6, r0, #7
    38e2:	4605      	mov	r5, r0
    38e4:	f000 85a5 	beq.w	4432 <_strtod_r+0xbd2>
    38e8:	2e06      	cmp	r6, #6
    38ea:	d105      	bne.n	38f8 <_strtod_r+0x98>
    38ec:	3401      	adds	r4, #1
    38ee:	2300      	movs	r3, #0
    38f0:	9419      	str	r4, [sp, #100]	; 0x64
    38f2:	9309      	str	r3, [sp, #36]	; 0x24
    38f4:	f000 bd9d 	b.w	4432 <_strtod_r+0xbd2>
    38f8:	9a1a      	ldr	r2, [sp, #104]	; 0x68
    38fa:	b13a      	cbz	r2, 390c <_strtod_r+0xac>
    38fc:	a81c      	add	r0, sp, #112	; 0x70
    38fe:	2135      	movs	r1, #53	; 0x35
    3900:	f002 fd83 	bl	640a <__copybits>
    3904:	4650      	mov	r0, sl
    3906:	991a      	ldr	r1, [sp, #104]	; 0x68
    3908:	f002 f9fa 	bl	5d00 <_Bfree>
    390c:	9a1b      	ldr	r2, [sp, #108]	; 0x6c
    390e:	2e06      	cmp	r6, #6
    3910:	d821      	bhi.n	3956 <_strtod_r+0xf6>
    3912:	e8df f006 	tbb	[pc, r6]
    3916:	0d04      	.short	0x0d04
    3918:	0d1c1708 	.word	0x0d1c1708
    391c:	04          	.byte	0x04
    391d:	00          	.byte	0x00
    391e:	f04f 0900 	mov.w	r9, #0
    3922:	46c8      	mov	r8, r9
    3924:	e017      	b.n	3956 <_strtod_r+0xf6>
    3926:	f8dd 8070 	ldr.w	r8, [sp, #112]	; 0x70
    392a:	f8dd 9074 	ldr.w	r9, [sp, #116]	; 0x74
    392e:	e012      	b.n	3956 <_strtod_r+0xf6>
    3930:	9b1d      	ldr	r3, [sp, #116]	; 0x74
    3932:	f202 4233 	addw	r2, r2, #1075	; 0x433
    3936:	f423 1380 	bic.w	r3, r3, #1048576	; 0x100000
    393a:	f8dd 8070 	ldr.w	r8, [sp, #112]	; 0x70
    393e:	ea43 5902 	orr.w	r9, r3, r2, lsl #20
    3942:	e008      	b.n	3956 <_strtod_r+0xf6>
    3944:	f8df 924c 	ldr.w	r9, [pc, #588]	; 3b94 <_strtod_r+0x334>
    3948:	f04f 0800 	mov.w	r8, #0
    394c:	e003      	b.n	3956 <_strtod_r+0xf6>
    394e:	f06f 4900 	mvn.w	r9, #2147483648	; 0x80000000
    3952:	f04f 38ff 	mov.w	r8, #4294967295
    3956:	0729      	lsls	r1, r5, #28
    3958:	f140 856b 	bpl.w	4432 <_strtod_r+0xbd2>
    395c:	f049 4900 	orr.w	r9, r9, #2147483648	; 0x80000000
    3960:	f000 bd67 	b.w	4432 <_strtod_r+0xbd2>
    3964:	9b19      	ldr	r3, [sp, #100]	; 0x64
    3966:	1c5a      	adds	r2, r3, #1
    3968:	9219      	str	r2, [sp, #100]	; 0x64
    396a:	785b      	ldrb	r3, [r3, #1]
    396c:	2b30      	cmp	r3, #48	; 0x30
    396e:	d0f9      	beq.n	3964 <_strtod_r+0x104>
    3970:	2b00      	cmp	r3, #0
    3972:	f000 855e 	beq.w	4432 <_strtod_r+0xbd2>
    3976:	2301      	movs	r3, #1
    3978:	e000      	b.n	397c <_strtod_r+0x11c>
    397a:	2300      	movs	r3, #0
    397c:	2600      	movs	r6, #0
    397e:	46b3      	mov	fp, r6
    3980:	4635      	mov	r5, r6
